(dp1
S'chapter_num'
p2
(dp3
S'length'
p4
I512
sS'unique'
p5
I00
sS'sortable'
p6
I2
sS'sql'
p7
S'INTEGER'
p8
sS'notnull'
p9
I00
sS'type'
p10
S'integer'
p11
ssS'section_num'
p12
(dp13
g4
I512
sg5
I00
sg6
I3
sg7
S'INTEGER'
p14
sg9
I00
sg10
g11
ssS'id'
p15
(dp16
g4
I512
sg5
I00
sg6
I1
sg7
S'INTEGER PRIMARY KEY AUTOINCREMENT'
p17
sg9
I00
sg10
g15
ssS'title'
p18
(dp19
g4
I512
sg5
I00
sg6
I4
sg7
S'CHAR(512)'
p20
sg9
I00
sg10
S'string'
p21
ss.