(dp1
S'body'
p2
(dp3
S'type'
p4
S'text'
p5
sS'sortable'
p6
I2
sS'sql'
p7
S'TEXT'
p8
ssS'posted_by'
p9
(dp10
g4
S'reference auth_user'
p11
sg6
I4
sg7
S'INTEGER REFERENCES auth_user(id) ON DELETE CASCADE'
p12
ssS'id'
p13
(dp14
g4
g13
sg6
I1
sg7
S'INTEGER PRIMARY KEY AUTOINCREMENT'
p15
ssS'posted_on'
p16
(dp17
g4
S'datetime'
p18
sg6
I3
sg7
S'TIMESTAMP'
p19
ss.