(dp1
S'output'
p2
S"<type 'exceptions.SyntaxError'> Field filter does not belong to the table"
p3
sS'layer'
p4
S'/home/ian/web2py/applications/blog/controllers/plugin_comments.py'
p5
sS'code'
p6
S"# coding: utf8\nif 0:\n    from gluon import current\n    from gluon.tools import Crud\n    db, auth = current.db, current.auth\n    crud = Crud(db)\n\n#checks to see whether\ndef checkfilter(form):\n    if form.vars.filter == '':\n        pass\n    else:\n        form.errors.bot = 'It seems like you may not be a human being! \\\n        If you are, be sure not to enter anything into any fields in the \\\n        form other than the large box for the text of your comment.'\n\ndef post():\n    comment = db.plugin_comments_comment\n    form = SQLFORM(comment, submit_button = 'add comment', separator = '', formstyle = 'ul', hidden = dict(filter = ''))\n    # adds the hidden field 'filter' to the processed form values (form.vars)\n    form.vars.filter = request.vars.filter\n    # process form\n    if form.process(onvalidation = checkfilter).accepted:\n        response.flash = 'Thanks for your thoughts!'\n    elif form.errors:\n        response.flash = 'Sorry, something went wrong when I tried to add your comment.'\n    else:\n        pass\n\n    comments = db(comment).select()\n    return dict(form = form, comments = comments)\n\nresponse._vars=response._caller(post)\n"
p7
sS'snapshot'
p8
(dp9
S'exception'
p10
(dp11
S'__getslice__'
p12
S"<method-wrapper '__getslice__' of exceptions.SyntaxError object>"
p13
sS'text'
p14
S'None'
p15
sS'__str__'
p16
S"<method-wrapper '__str__' of exceptions.SyntaxError object>"
p17
sS'__reduce__'
p18
S'<built-in method __reduce__ of exceptions.SyntaxError object>'
p19
sS'__dict__'
p20
S'{}'
p21
sS'__sizeof__'
p22
S'<built-in method __sizeof__ of exceptions.SyntaxError object>'
p23
sS'__init__'
p24
S"<method-wrapper '__init__' of exceptions.SyntaxError object>"
p25
sS'__setattr__'
p26
S"<method-wrapper '__setattr__' of exceptions.SyntaxError object>"
p27
sS'__reduce_ex__'
p28
S'<built-in method __reduce_ex__ of exceptions.SyntaxError object>'
p29
sS'__new__'
p30
S'<built-in method __new__ of type object>'
p31
sS'__format__'
p32
S'<built-in method __format__ of exceptions.SyntaxError object>'
p33
sS'__class__'
p34
S"<type 'exceptions.SyntaxError'>"
p35
sS'filename'
p36
S'None'
p37
sS'lineno'
p38
S'None'
p39
sS'msg'
p40
S"'Field filter does not belong to the table'"
p41
sS'__doc__'
p42
S"'Invalid syntax.'"
p43
sS'__getitem__'
p44
S"<method-wrapper '__getitem__' of exceptions.SyntaxError object>"
p45
sS'__setstate__'
p46
S'<built-in method __setstate__ of exceptions.SyntaxError object>'
p47
sS'__getattribute__'
p48
S"<method-wrapper '__getattribute__' of exceptions.SyntaxError object>"
p49
sS'print_file_and_line'
p50
S'None'
p51
sS'args'
p52
S"('Field filter does not belong to the table',)"
p53
sS'__subclasshook__'
p54
S'<built-in method __subclasshook__ of type object>'
p55
sS'offset'
p56
S'None'
p57
sS'__unicode__'
p58
S'<built-in method __unicode__ of exceptions.SyntaxError object>'
p59
sS'__delattr__'
p60
S"<method-wrapper '__delattr__' of exceptions.SyntaxError object>"
p61
sS'__repr__'
p62
S"<method-wrapper '__repr__' of exceptions.SyntaxError object>"
p63
sS'__hash__'
p64
S"<method-wrapper '__hash__' of exceptions.SyntaxError object>"
p65
ssS'evalue'
p66
S'Field filter does not belong to the table'
p67
sS'request'
p68
ccopy_reg
_reconstructor
p69
(cgluon.html
BEAUTIFY
p70
c__builtin__
object
p71
NtRp72
(dp73
S'attributes'
p74
(dp75
sS'components'
p76
(lp77
g69
(cgluon.html
TABLE
p78
g71
NtRp79
(dp80
g74
(dp81
S'level'
p82
I5
ssS'parent'
p83
Nsg76
(lp84
g69
(cgluon.html
TR
p85
g71
NtRp86
(dp87
g74
(dp88
sg83
g79
sg76
(lp89
g69
(cgluon.html
TD
p90
g71
NtRp91
(dp92
g74
(dp93
S'_style'
p94
S'font-weight:bold;vertical-align:top'
p95
ssg83
g86
sg76
(lp96
S'ajax'
p97
asbag69
(g90
g71
NtRp98
(dp99
g74
(dp100
S'_valign'
p101
S'top'
p102
ssg83
g86
sg76
(lp103
S':'
asbag69
(g90
g71
NtRp104
(dp105
g74
(dp106
sg83
g86
sg76
(lp107
g69
(g70
g71
NtRp108
(dp109
g74
(dp110
g82
I5
ssg83
g104
sg76
(lp111
S'True'
p112
asbasbasbag69
(g85
g71
NtRp113
(dp114
g74
(dp115
sg83
g79
sg76
(lp116
g69
(g90
g71
NtRp117
(dp118
g74
(dp119
g94
g95
ssg83
g113
sg76
(lp120
S'application'
p121
asbag69
(g90
g71
NtRp122
(dp123
g74
(dp124
g101
g102
ssg83
g113
sg76
(lp125
S':'
asbag69
(g90
g71
NtRp126
(dp127
g74
(dp128
sg83
g113
sg76
(lp129
g69
(g70
g71
NtRp130
(dp131
g74
(dp132
g82
I5
ssg83
g126
sg76
(lp133
S'blog'
p134
asbasbasbag69
(g85
g71
NtRp135
(dp136
g74
(dp137
sg83
g79
sg76
(lp138
g69
(g90
g71
NtRp139
(dp140
g74
(dp141
g94
g95
ssg83
g135
sg76
(lp142
g52
asbag69
(g90
g71
NtRp143
(dp144
g74
(dp145
g101
g102
ssg83
g135
sg76
(lp146
S':'
asbag69
(g90
g71
NtRp147
(dp148
g74
(dp149
sg83
g135
sg76
(lp150
g69
(g70
g71
NtRp151
(dp152
g74
(dp153
g82
I5
ssg83
g147
sg76
(lp154
g69
(g78
g71
NtRp155
(dp156
g74
(dp157
g82
I4
ssg83
Nsg76
(lp158
sbasbasbasbag69
(g85
g71
NtRp159
(dp160
g74
(dp161
sg83
g79
sg76
(lp162
g69
(g90
g71
NtRp163
(dp164
g74
(dp165
g94
g95
ssg83
g159
sg76
(lp166
S'body'
p167
asbag69
(g90
g71
NtRp168
(dp169
g74
(dp170
g101
g102
ssg83
g159
sg76
(lp171
S':'
asbag69
(g90
g71
NtRp172
(dp173
g74
(dp174
sg83
g159
sg76
(lp175
g69
(g70
g71
NtRp176
(dp177
g74
(dp178
g82
I5
ssg83
g172
sg76
(lp179
S"<open file '<fdopen>', mode 'w+b' at 0x19e8f60>"
p180
asbasbasbag69
(g85
g71
NtRp181
(dp182
g74
(dp183
sg83
g79
sg76
(lp184
g69
(g90
g71
NtRp185
(dp186
g74
(dp187
g94
g95
ssg83
g181
sg76
(lp188
S'cid'
p189
asbag69
(g90
g71
NtRp190
(dp191
g74
(dp192
g101
g102
ssg83
g181
sg76
(lp193
S':'
asbag69
(g90
g71
NtRp194
(dp195
g74
(dp196
sg83
g181
sg76
(lp197
g69
(g70
g71
NtRp198
(dp199
g74
(dp200
g82
I5
ssg83
g194
sg76
(lp201
S'c0438663283137'
p202
asbasbasbag69
(g85
g71
NtRp203
(dp204
g74
(dp205
sg83
g79
sg76
(lp206
g69
(g90
g71
NtRp207
(dp208
g74
(dp209
g94
g95
ssg83
g203
sg76
(lp210
S'client'
p211
asbag69
(g90
g71
NtRp212
(dp213
g74
(dp214
g101
g102
ssg83
g203
sg76
(lp215
S':'
asbag69
(g90
g71
NtRp216
(dp217
g74
(dp218
sg83
g203
sg76
(lp219
g69
(g70
g71
NtRp220
(dp221
g74
(dp222
g82
I5
ssg83
g216
sg76
(lp223
S'127.0.0.1'
p224
asbasbasbag69
(g85
g71
NtRp225
(dp226
g74
(dp227
sg83
g79
sg76
(lp228
g69
(g90
g71
NtRp229
(dp230
g74
(dp231
g94
g95
ssg83
g225
sg76
(lp232
S'controller'
p233
asbag69
(g90
g71
NtRp234
(dp235
g74
(dp236
g101
g102
ssg83
g225
sg76
(lp237
S':'
asbag69
(g90
g71
NtRp238
(dp239
g74
(dp240
sg83
g225
sg76
(lp241
g69
(g70
g71
NtRp242
(dp243
g74
(dp244
g82
I5
ssg83
g238
sg76
(lp245
S'plugin_comments'
p246
asbasbasbag69
(g85
g71
NtRp247
(dp248
g74
(dp249
sg83
g79
sg76
(lp250
g69
(g90
g71
NtRp251
(dp252
g74
(dp253
g94
g95
ssg83
g247
sg76
(lp254
S'cookies'
p255
asbag69
(g90
g71
NtRp256
(dp257
g74
(dp258
g101
g102
ssg83
g247
sg76
(lp259
S':'
asbag69
(g90
g71
NtRp260
(dp261
g74
(dp262
sg83
g247
sg76
(lp263
g69
(g70
g71
NtRp264
(dp265
g74
(dp266
g82
I5
ssg83
g260
sg76
(lp267
g69
(g78
g71
NtRp268
(dp269
g74
(dp270
g82
I4
ssg83
Nsg76
(lp271
g69
(g85
g71
NtRp272
(dp273
g74
(dp274
sg83
g268
sg76
(lp275
g69
(g90
g71
NtRp276
(dp277
g74
(dp278
g94
g95
ssg83
g272
sg76
(lp279
S'session_id_admin'
p280
asbag69
(g90
g71
NtRp281
(dp282
g74
(dp283
g101
g102
ssg83
g272
sg76
(lp284
S':'
asbag69
(g90
g71
NtRp285
(dp286
g74
(dp287
sg83
g272
sg76
(lp288
g69
(g70
g71
NtRp289
(dp290
g74
(dp291
g82
I4
ssg83
g285
sg76
(lp292
g69
(g78
g71
NtRp293
(dp294
g74
(dp295
g82
I3
ssg83
Nsg76
(lp296
g69
(g85
g71
NtRp297
(dp298
g74
(dp299
sg83
g293
sg76
(lp300
g69
(g90
g71
NtRp301
(dp302
g74
(dp303
g94
g95
ssg83
g297
sg76
(lp304
S'comment'
p305
asbag69
(g90
g71
NtRp306
(dp307
g74
(dp308
g101
g102
ssg83
g297
sg76
(lp309
S':'
asbag69
(g90
g71
NtRp310
(dp311
g74
(dp312
sg83
g297
sg76
(lp313
g69
(g70
g71
NtRp314
(dp315
g74
(dp316
g82
I3
ssg83
g310
sg76
(lp317
S''
asbasbasbag69
(g85
g71
NtRp318
(dp319
g74
(dp320
sg83
g293
sg76
(lp321
g69
(g90
g71
NtRp322
(dp323
g74
(dp324
g94
g95
ssg83
g318
sg76
(lp325
S'domain'
p326
asbag69
(g90
g71
NtRp327
(dp328
g74
(dp329
g101
g102
ssg83
g318
sg76
(lp330
S':'
asbag69
(g90
g71
NtRp331
(dp332
g74
(dp333
sg83
g318
sg76
(lp334
g69
(g70
g71
NtRp335
(dp336
g74
(dp337
g82
I3
ssg83
g331
sg76
(lp338
S''
asbasbasbag69
(g85
g71
NtRp339
(dp340
g74
(dp341
sg83
g293
sg76
(lp342
g69
(g90
g71
NtRp343
(dp344
g74
(dp345
g94
g95
ssg83
g339
sg76
(lp346
S'expires'
p347
asbag69
(g90
g71
NtRp348
(dp349
g74
(dp350
g101
g102
ssg83
g339
sg76
(lp351
S':'
asbag69
(g90
g71
NtRp352
(dp353
g74
(dp354
sg83
g339
sg76
(lp355
g69
(g70
g71
NtRp356
(dp357
g74
(dp358
g82
I3
ssg83
g352
sg76
(lp359
S''
asbasbasbag69
(g85
g71
NtRp360
(dp361
g74
(dp362
sg83
g293
sg76
(lp363
g69
(g90
g71
NtRp364
(dp365
g74
(dp366
g94
g95
ssg83
g360
sg76
(lp367
S'httponly'
p368
asbag69
(g90
g71
NtRp369
(dp370
g74
(dp371
g101
g102
ssg83
g360
sg76
(lp372
S':'
asbag69
(g90
g71
NtRp373
(dp374
g74
(dp375
sg83
g360
sg76
(lp376
g69
(g70
g71
NtRp377
(dp378
g74
(dp379
g82
I3
ssg83
g373
sg76
(lp380
S''
asbasbasbag69
(g85
g71
NtRp381
(dp382
g74
(dp383
sg83
g293
sg76
(lp384
g69
(g90
g71
NtRp385
(dp386
g74
(dp387
g94
g95
ssg83
g381
sg76
(lp388
S'max-age'
p389
asbag69
(g90
g71
NtRp390
(dp391
g74
(dp392
g101
g102
ssg83
g381
sg76
(lp393
S':'
asbag69
(g90
g71
NtRp394
(dp395
g74
(dp396
sg83
g381
sg76
(lp397
g69
(g70
g71
NtRp398
(dp399
g74
(dp400
g82
I3
ssg83
g394
sg76
(lp401
S''
asbasbasbag69
(g85
g71
NtRp402
(dp403
g74
(dp404
sg83
g293
sg76
(lp405
g69
(g90
g71
NtRp406
(dp407
g74
(dp408
g94
g95
ssg83
g402
sg76
(lp409
S'path'
p410
asbag69
(g90
g71
NtRp411
(dp412
g74
(dp413
g101
g102
ssg83
g402
sg76
(lp414
S':'
asbag69
(g90
g71
NtRp415
(dp416
g74
(dp417
sg83
g402
sg76
(lp418
g69
(g70
g71
NtRp419
(dp420
g74
(dp421
g82
I3
ssg83
g415
sg76
(lp422
S''
asbasbasbag69
(g85
g71
NtRp423
(dp424
g74
(dp425
sg83
g293
sg76
(lp426
g69
(g90
g71
NtRp427
(dp428
g74
(dp429
g94
g95
ssg83
g423
sg76
(lp430
S'secure'
p431
asbag69
(g90
g71
NtRp432
(dp433
g74
(dp434
g101
g102
ssg83
g423
sg76
(lp435
S':'
asbag69
(g90
g71
NtRp436
(dp437
g74
(dp438
sg83
g423
sg76
(lp439
g69
(g70
g71
NtRp440
(dp441
g74
(dp442
g82
I3
ssg83
g436
sg76
(lp443
S''
asbasbasbag69
(g85
g71
NtRp444
(dp445
g74
(dp446
sg83
g293
sg76
(lp447
g69
(g90
g71
NtRp448
(dp449
g74
(dp450
g94
g95
ssg83
g444
sg76
(lp451
S'version'
p452
asbag69
(g90
g71
NtRp453
(dp454
g74
(dp455
g101
g102
ssg83
g444
sg76
(lp456
S':'
asbag69
(g90
g71
NtRp457
(dp458
g74
(dp459
sg83
g444
sg76
(lp460
g69
(g70
g71
NtRp461
(dp462
g74
(dp463
g82
I3
ssg83
g457
sg76
(lp464
S''
asbasbasbasbasbasbasbag69
(g85
g71
NtRp465
(dp466
g74
(dp467
sg83
g268
sg76
(lp468
g69
(g90
g71
NtRp469
(dp470
g74
(dp471
g94
g95
ssg83
g465
sg76
(lp472
S'session_id_blog'
p473
asbag69
(g90
g71
NtRp474
(dp475
g74
(dp476
g101
g102
ssg83
g465
sg76
(lp477
S':'
asbag69
(g90
g71
NtRp478
(dp479
g74
(dp480
sg83
g465
sg76
(lp481
g69
(g70
g71
NtRp482
(dp483
g74
(dp484
g82
I4
ssg83
g478
sg76
(lp485
g69
(g78
g71
NtRp486
(dp487
g74
(dp488
g82
I3
ssg83
Nsg76
(lp489
g69
(g85
g71
NtRp490
(dp491
g74
(dp492
sg83
g486
sg76
(lp493
g69
(g90
g71
NtRp494
(dp495
g74
(dp496
g94
g95
ssg83
g490
sg76
(lp497
g305
asbag69
(g90
g71
NtRp498
(dp499
g74
(dp500
g101
g102
ssg83
g490
sg76
(lp501
S':'
asbag69
(g90
g71
NtRp502
(dp503
g74
(dp504
sg83
g490
sg76
(lp505
g69
(g70
g71
NtRp506
(dp507
g74
(dp508
g82
I3
ssg83
g502
sg76
(lp509
S''
asbasbasbag69
(g85
g71
NtRp510
(dp511
g74
(dp512
sg83
g486
sg76
(lp513
g69
(g90
g71
NtRp514
(dp515
g74
(dp516
g94
g95
ssg83
g510
sg76
(lp517
g326
asbag69
(g90
g71
NtRp518
(dp519
g74
(dp520
g101
g102
ssg83
g510
sg76
(lp521
S':'
asbag69
(g90
g71
NtRp522
(dp523
g74
(dp524
sg83
g510
sg76
(lp525
g69
(g70
g71
NtRp526
(dp527
g74
(dp528
g82
I3
ssg83
g522
sg76
(lp529
S''
asbasbasbag69
(g85
g71
NtRp530
(dp531
g74
(dp532
sg83
g486
sg76
(lp533
g69
(g90
g71
NtRp534
(dp535
g74
(dp536
g94
g95
ssg83
g530
sg76
(lp537
g347
asbag69
(g90
g71
NtRp538
(dp539
g74
(dp540
g101
g102
ssg83
g530
sg76
(lp541
S':'
asbag69
(g90
g71
NtRp542
(dp543
g74
(dp544
sg83
g530
sg76
(lp545
g69
(g70
g71
NtRp546
(dp547
g74
(dp548
g82
I3
ssg83
g542
sg76
(lp549
S''
asbasbasbag69
(g85
g71
NtRp550
(dp551
g74
(dp552
sg83
g486
sg76
(lp553
g69
(g90
g71
NtRp554
(dp555
g74
(dp556
g94
g95
ssg83
g550
sg76
(lp557
g368
asbag69
(g90
g71
NtRp558
(dp559
g74
(dp560
g101
g102
ssg83
g550
sg76
(lp561
S':'
asbag69
(g90
g71
NtRp562
(dp563
g74
(dp564
sg83
g550
sg76
(lp565
g69
(g70
g71
NtRp566
(dp567
g74
(dp568
g82
I3
ssg83
g562
sg76
(lp569
S''
asbasbasbag69
(g85
g71
NtRp570
(dp571
g74
(dp572
sg83
g486
sg76
(lp573
g69
(g90
g71
NtRp574
(dp575
g74
(dp576
g94
g95
ssg83
g570
sg76
(lp577
g389
asbag69
(g90
g71
NtRp578
(dp579
g74
(dp580
g101
g102
ssg83
g570
sg76
(lp581
S':'
asbag69
(g90
g71
NtRp582
(dp583
g74
(dp584
sg83
g570
sg76
(lp585
g69
(g70
g71
NtRp586
(dp587
g74
(dp588
g82
I3
ssg83
g582
sg76
(lp589
S''
asbasbasbag69
(g85
g71
NtRp590
(dp591
g74
(dp592
sg83
g486
sg76
(lp593
g69
(g90
g71
NtRp594
(dp595
g74
(dp596
g94
g95
ssg83
g590
sg76
(lp597
g410
asbag69
(g90
g71
NtRp598
(dp599
g74
(dp600
g101
g102
ssg83
g590
sg76
(lp601
S':'
asbag69
(g90
g71
NtRp602
(dp603
g74
(dp604
sg83
g590
sg76
(lp605
g69
(g70
g71
NtRp606
(dp607
g74
(dp608
g82
I3
ssg83
g602
sg76
(lp609
S''
asbasbasbag69
(g85
g71
NtRp610
(dp611
g74
(dp612
sg83
g486
sg76
(lp613
g69
(g90
g71
NtRp614
(dp615
g74
(dp616
g94
g95
ssg83
g610
sg76
(lp617
g431
asbag69
(g90
g71
NtRp618
(dp619
g74
(dp620
g101
g102
ssg83
g610
sg76
(lp621
S':'
asbag69
(g90
g71
NtRp622
(dp623
g74
(dp624
sg83
g610
sg76
(lp625
g69
(g70
g71
NtRp626
(dp627
g74
(dp628
g82
I3
ssg83
g622
sg76
(lp629
S''
asbasbasbag69
(g85
g71
NtRp630
(dp631
g74
(dp632
sg83
g486
sg76
(lp633
g69
(g90
g71
NtRp634
(dp635
g74
(dp636
g94
g95
ssg83
g630
sg76
(lp637
g452
asbag69
(g90
g71
NtRp638
(dp639
g74
(dp640
g101
g102
ssg83
g630
sg76
(lp641
S':'
asbag69
(g90
g71
NtRp642
(dp643
g74
(dp644
sg83
g630
sg76
(lp645
g69
(g70
g71
NtRp646
(dp647
g74
(dp648
g82
I3
ssg83
g642
sg76
(lp649
S''
asbasbasbasbasbasbasbag69
(g85
g71
NtRp650
(dp651
g74
(dp652
sg83
g268
sg76
(lp653
g69
(g90
g71
NtRp654
(dp655
g74
(dp656
g94
g95
ssg83
g650
sg76
(lp657
S'session_id_grades'
p658
asbag69
(g90
g71
NtRp659
(dp660
g74
(dp661
g101
g102
ssg83
g650
sg76
(lp662
S':'
asbag69
(g90
g71
NtRp663
(dp664
g74
(dp665
sg83
g650
sg76
(lp666
g69
(g70
g71
NtRp667
(dp668
g74
(dp669
g82
I4
ssg83
g663
sg76
(lp670
g69
(g78
g71
NtRp671
(dp672
g74
(dp673
g82
I3
ssg83
Nsg76
(lp674
g69
(g85
g71
NtRp675
(dp676
g74
(dp677
sg83
g671
sg76
(lp678
g69
(g90
g71
NtRp679
(dp680
g74
(dp681
g94
g95
ssg83
g675
sg76
(lp682
g305
asbag69
(g90
g71
NtRp683
(dp684
g74
(dp685
g101
g102
ssg83
g675
sg76
(lp686
S':'
asbag69
(g90
g71
NtRp687
(dp688
g74
(dp689
sg83
g675
sg76
(lp690
g69
(g70
g71
NtRp691
(dp692
g74
(dp693
g82
I3
ssg83
g687
sg76
(lp694
S''
asbasbasbag69
(g85
g71
NtRp695
(dp696
g74
(dp697
sg83
g671
sg76
(lp698
g69
(g90
g71
NtRp699
(dp700
g74
(dp701
g94
g95
ssg83
g695
sg76
(lp702
g326
asbag69
(g90
g71
NtRp703
(dp704
g74
(dp705
g101
g102
ssg83
g695
sg76
(lp706
S':'
asbag69
(g90
g71
NtRp707
(dp708
g74
(dp709
sg83
g695
sg76
(lp710
g69
(g70
g71
NtRp711
(dp712
g74
(dp713
g82
I3
ssg83
g707
sg76
(lp714
S''
asbasbasbag69
(g85
g71
NtRp715
(dp716
g74
(dp717
sg83
g671
sg76
(lp718
g69
(g90
g71
NtRp719
(dp720
g74
(dp721
g94
g95
ssg83
g715
sg76
(lp722
g347
asbag69
(g90
g71
NtRp723
(dp724
g74
(dp725
g101
g102
ssg83
g715
sg76
(lp726
S':'
asbag69
(g90
g71
NtRp727
(dp728
g74
(dp729
sg83
g715
sg76
(lp730
g69
(g70
g71
NtRp731
(dp732
g74
(dp733
g82
I3
ssg83
g727
sg76
(lp734
S''
asbasbasbag69
(g85
g71
NtRp735
(dp736
g74
(dp737
sg83
g671
sg76
(lp738
g69
(g90
g71
NtRp739
(dp740
g74
(dp741
g94
g95
ssg83
g735
sg76
(lp742
g368
asbag69
(g90
g71
NtRp743
(dp744
g74
(dp745
g101
g102
ssg83
g735
sg76
(lp746
S':'
asbag69
(g90
g71
NtRp747
(dp748
g74
(dp749
sg83
g735
sg76
(lp750
g69
(g70
g71
NtRp751
(dp752
g74
(dp753
g82
I3
ssg83
g747
sg76
(lp754
S''
asbasbasbag69
(g85
g71
NtRp755
(dp756
g74
(dp757
sg83
g671
sg76
(lp758
g69
(g90
g71
NtRp759
(dp760
g74
(dp761
g94
g95
ssg83
g755
sg76
(lp762
g389
asbag69
(g90
g71
NtRp763
(dp764
g74
(dp765
g101
g102
ssg83
g755
sg76
(lp766
S':'
asbag69
(g90
g71
NtRp767
(dp768
g74
(dp769
sg83
g755
sg76
(lp770
g69
(g70
g71
NtRp771
(dp772
g74
(dp773
g82
I3
ssg83
g767
sg76
(lp774
S''
asbasbasbag69
(g85
g71
NtRp775
(dp776
g74
(dp777
sg83
g671
sg76
(lp778
g69
(g90
g71
NtRp779
(dp780
g74
(dp781
g94
g95
ssg83
g775
sg76
(lp782
g410
asbag69
(g90
g71
NtRp783
(dp784
g74
(dp785
g101
g102
ssg83
g775
sg76
(lp786
S':'
asbag69
(g90
g71
NtRp787
(dp788
g74
(dp789
sg83
g775
sg76
(lp790
g69
(g70
g71
NtRp791
(dp792
g74
(dp793
g82
I3
ssg83
g787
sg76
(lp794
S''
asbasbasbag69
(g85
g71
NtRp795
(dp796
g74
(dp797
sg83
g671
sg76
(lp798
g69
(g90
g71
NtRp799
(dp800
g74
(dp801
g94
g95
ssg83
g795
sg76
(lp802
g431
asbag69
(g90
g71
NtRp803
(dp804
g74
(dp805
g101
g102
ssg83
g795
sg76
(lp806
S':'
asbag69
(g90
g71
NtRp807
(dp808
g74
(dp809
sg83
g795
sg76
(lp810
g69
(g70
g71
NtRp811
(dp812
g74
(dp813
g82
I3
ssg83
g807
sg76
(lp814
S''
asbasbasbag69
(g85
g71
NtRp815
(dp816
g74
(dp817
sg83
g671
sg76
(lp818
g69
(g90
g71
NtRp819
(dp820
g74
(dp821
g94
g95
ssg83
g815
sg76
(lp822
g452
asbag69
(g90
g71
NtRp823
(dp824
g74
(dp825
g101
g102
ssg83
g815
sg76
(lp826
S':'
asbag69
(g90
g71
NtRp827
(dp828
g74
(dp829
sg83
g815
sg76
(lp830
g69
(g70
g71
NtRp831
(dp832
g74
(dp833
g82
I3
ssg83
g827
sg76
(lp834
S''
asbasbasbasbasbasbasbag69
(g85
g71
NtRp835
(dp836
g74
(dp837
sg83
g268
sg76
(lp838
g69
(g90
g71
NtRp839
(dp840
g74
(dp841
g94
g95
ssg83
g835
sg76
(lp842
S'session_id_paideia'
p843
asbag69
(g90
g71
NtRp844
(dp845
g74
(dp846
g101
g102
ssg83
g835
sg76
(lp847
S':'
asbag69
(g90
g71
NtRp848
(dp849
g74
(dp850
sg83
g835
sg76
(lp851
g69
(g70
g71
NtRp852
(dp853
g74
(dp854
g82
I4
ssg83
g848
sg76
(lp855
g69
(g78
g71
NtRp856
(dp857
g74
(dp858
g82
I3
ssg83
Nsg76
(lp859
g69
(g85
g71
NtRp860
(dp861
g74
(dp862
sg83
g856
sg76
(lp863
g69
(g90
g71
NtRp864
(dp865
g74
(dp866
g94
g95
ssg83
g860
sg76
(lp867
g305
asbag69
(g90
g71
NtRp868
(dp869
g74
(dp870
g101
g102
ssg83
g860
sg76
(lp871
S':'
asbag69
(g90
g71
NtRp872
(dp873
g74
(dp874
sg83
g860
sg76
(lp875
g69
(g70
g71
NtRp876
(dp877
g74
(dp878
g82
I3
ssg83
g872
sg76
(lp879
S''
asbasbasbag69
(g85
g71
NtRp880
(dp881
g74
(dp882
sg83
g856
sg76
(lp883
g69
(g90
g71
NtRp884
(dp885
g74
(dp886
g94
g95
ssg83
g880
sg76
(lp887
g326
asbag69
(g90
g71
NtRp888
(dp889
g74
(dp890
g101
g102
ssg83
g880
sg76
(lp891
S':'
asbag69
(g90
g71
NtRp892
(dp893
g74
(dp894
sg83
g880
sg76
(lp895
g69
(g70
g71
NtRp896
(dp897
g74
(dp898
g82
I3
ssg83
g892
sg76
(lp899
S''
asbasbasbag69
(g85
g71
NtRp900
(dp901
g74
(dp902
sg83
g856
sg76
(lp903
g69
(g90
g71
NtRp904
(dp905
g74
(dp906
g94
g95
ssg83
g900
sg76
(lp907
g347
asbag69
(g90
g71
NtRp908
(dp909
g74
(dp910
g101
g102
ssg83
g900
sg76
(lp911
S':'
asbag69
(g90
g71
NtRp912
(dp913
g74
(dp914
sg83
g900
sg76
(lp915
g69
(g70
g71
NtRp916
(dp917
g74
(dp918
g82
I3
ssg83
g912
sg76
(lp919
S''
asbasbasbag69
(g85
g71
NtRp920
(dp921
g74
(dp922
sg83
g856
sg76
(lp923
g69
(g90
g71
NtRp924
(dp925
g74
(dp926
g94
g95
ssg83
g920
sg76
(lp927
g368
asbag69
(g90
g71
NtRp928
(dp929
g74
(dp930
g101
g102
ssg83
g920
sg76
(lp931
S':'
asbag69
(g90
g71
NtRp932
(dp933
g74
(dp934
sg83
g920
sg76
(lp935
g69
(g70
g71
NtRp936
(dp937
g74
(dp938
g82
I3
ssg83
g932
sg76
(lp939
S''
asbasbasbag69
(g85
g71
NtRp940
(dp941
g74
(dp942
sg83
g856
sg76
(lp943
g69
(g90
g71
NtRp944
(dp945
g74
(dp946
g94
g95
ssg83
g940
sg76
(lp947
g389
asbag69
(g90
g71
NtRp948
(dp949
g74
(dp950
g101
g102
ssg83
g940
sg76
(lp951
S':'
asbag69
(g90
g71
NtRp952
(dp953
g74
(dp954
sg83
g940
sg76
(lp955
g69
(g70
g71
NtRp956
(dp957
g74
(dp958
g82
I3
ssg83
g952
sg76
(lp959
S''
asbasbasbag69
(g85
g71
NtRp960
(dp961
g74
(dp962
sg83
g856
sg76
(lp963
g69
(g90
g71
NtRp964
(dp965
g74
(dp966
g94
g95
ssg83
g960
sg76
(lp967
g410
asbag69
(g90
g71
NtRp968
(dp969
g74
(dp970
g101
g102
ssg83
g960
sg76
(lp971
S':'
asbag69
(g90
g71
NtRp972
(dp973
g74
(dp974
sg83
g960
sg76
(lp975
g69
(g70
g71
NtRp976
(dp977
g74
(dp978
g82
I3
ssg83
g972
sg76
(lp979
S''
asbasbasbag69
(g85
g71
NtRp980
(dp981
g74
(dp982
sg83
g856
sg76
(lp983
g69
(g90
g71
NtRp984
(dp985
g74
(dp986
g94
g95
ssg83
g980
sg76
(lp987
g431
asbag69
(g90
g71
NtRp988
(dp989
g74
(dp990
g101
g102
ssg83
g980
sg76
(lp991
S':'
asbag69
(g90
g71
NtRp992
(dp993
g74
(dp994
sg83
g980
sg76
(lp995
g69
(g70
g71
NtRp996
(dp997
g74
(dp998
g82
I3
ssg83
g992
sg76
(lp999
S''
asbasbasbag69
(g85
g71
NtRp1000
(dp1001
g74
(dp1002
sg83
g856
sg76
(lp1003
g69
(g90
g71
NtRp1004
(dp1005
g74
(dp1006
g94
g95
ssg83
g1000
sg76
(lp1007
g452
asbag69
(g90
g71
NtRp1008
(dp1009
g74
(dp1010
g101
g102
ssg83
g1000
sg76
(lp1011
S':'
asbag69
(g90
g71
NtRp1012
(dp1013
g74
(dp1014
sg83
g1000
sg76
(lp1015
g69
(g70
g71
NtRp1016
(dp1017
g74
(dp1018
g82
I3
ssg83
g1012
sg76
(lp1019
S''
asbasbasbasbasbasbasbag69
(g85
g71
NtRp1020
(dp1021
g74
(dp1022
sg83
g268
sg76
(lp1023
g69
(g90
g71
NtRp1024
(dp1025
g74
(dp1026
g94
g95
ssg83
g1020
sg76
(lp1027
S'session_id_topoi'
p1028
asbag69
(g90
g71
NtRp1029
(dp1030
g74
(dp1031
g101
g102
ssg83
g1020
sg76
(lp1032
S':'
asbag69
(g90
g71
NtRp1033
(dp1034
g74
(dp1035
sg83
g1020
sg76
(lp1036
g69
(g70
g71
NtRp1037
(dp1038
g74
(dp1039
g82
I4
ssg83
g1033
sg76
(lp1040
g69
(g78
g71
NtRp1041
(dp1042
g74
(dp1043
g82
I3
ssg83
Nsg76
(lp1044
g69
(g85
g71
NtRp1045
(dp1046
g74
(dp1047
sg83
g1041
sg76
(lp1048
g69
(g90
g71
NtRp1049
(dp1050
g74
(dp1051
g94
g95
ssg83
g1045
sg76
(lp1052
g305
asbag69
(g90
g71
NtRp1053
(dp1054
g74
(dp1055
g101
g102
ssg83
g1045
sg76
(lp1056
S':'
asbag69
(g90
g71
NtRp1057
(dp1058
g74
(dp1059
sg83
g1045
sg76
(lp1060
g69
(g70
g71
NtRp1061
(dp1062
g74
(dp1063
g82
I3
ssg83
g1057
sg76
(lp1064
S''
asbasbasbag69
(g85
g71
NtRp1065
(dp1066
g74
(dp1067
sg83
g1041
sg76
(lp1068
g69
(g90
g71
NtRp1069
(dp1070
g74
(dp1071
g94
g95
ssg83
g1065
sg76
(lp1072
g326
asbag69
(g90
g71
NtRp1073
(dp1074
g74
(dp1075
g101
g102
ssg83
g1065
sg76
(lp1076
S':'
asbag69
(g90
g71
NtRp1077
(dp1078
g74
(dp1079
sg83
g1065
sg76
(lp1080
g69
(g70
g71
NtRp1081
(dp1082
g74
(dp1083
g82
I3
ssg83
g1077
sg76
(lp1084
S''
asbasbasbag69
(g85
g71
NtRp1085
(dp1086
g74
(dp1087
sg83
g1041
sg76
(lp1088
g69
(g90
g71
NtRp1089
(dp1090
g74
(dp1091
g94
g95
ssg83
g1085
sg76
(lp1092
g347
asbag69
(g90
g71
NtRp1093
(dp1094
g74
(dp1095
g101
g102
ssg83
g1085
sg76
(lp1096
S':'
asbag69
(g90
g71
NtRp1097
(dp1098
g74
(dp1099
sg83
g1085
sg76
(lp1100
g69
(g70
g71
NtRp1101
(dp1102
g74
(dp1103
g82
I3
ssg83
g1097
sg76
(lp1104
S''
asbasbasbag69
(g85
g71
NtRp1105
(dp1106
g74
(dp1107
sg83
g1041
sg76
(lp1108
g69
(g90
g71
NtRp1109
(dp1110
g74
(dp1111
g94
g95
ssg83
g1105
sg76
(lp1112
g368
asbag69
(g90
g71
NtRp1113
(dp1114
g74
(dp1115
g101
g102
ssg83
g1105
sg76
(lp1116
S':'
asbag69
(g90
g71
NtRp1117
(dp1118
g74
(dp1119
sg83
g1105
sg76
(lp1120
g69
(g70
g71
NtRp1121
(dp1122
g74
(dp1123
g82
I3
ssg83
g1117
sg76
(lp1124
S''
asbasbasbag69
(g85
g71
NtRp1125
(dp1126
g74
(dp1127
sg83
g1041
sg76
(lp1128
g69
(g90
g71
NtRp1129
(dp1130
g74
(dp1131
g94
g95
ssg83
g1125
sg76
(lp1132
g389
asbag69
(g90
g71
NtRp1133
(dp1134
g74
(dp1135
g101
g102
ssg83
g1125
sg76
(lp1136
S':'
asbag69
(g90
g71
NtRp1137
(dp1138
g74
(dp1139
sg83
g1125
sg76
(lp1140
g69
(g70
g71
NtRp1141
(dp1142
g74
(dp1143
g82
I3
ssg83
g1137
sg76
(lp1144
S''
asbasbasbag69
(g85
g71
NtRp1145
(dp1146
g74
(dp1147
sg83
g1041
sg76
(lp1148
g69
(g90
g71
NtRp1149
(dp1150
g74
(dp1151
g94
g95
ssg83
g1145
sg76
(lp1152
g410
asbag69
(g90
g71
NtRp1153
(dp1154
g74
(dp1155
g101
g102
ssg83
g1145
sg76
(lp1156
S':'
asbag69
(g90
g71
NtRp1157
(dp1158
g74
(dp1159
sg83
g1145
sg76
(lp1160
g69
(g70
g71
NtRp1161
(dp1162
g74
(dp1163
g82
I3
ssg83
g1157
sg76
(lp1164
S''
asbasbasbag69
(g85
g71
NtRp1165
(dp1166
g74
(dp1167
sg83
g1041
sg76
(lp1168
g69
(g90
g71
NtRp1169
(dp1170
g74
(dp1171
g94
g95
ssg83
g1165
sg76
(lp1172
g431
asbag69
(g90
g71
NtRp1173
(dp1174
g74
(dp1175
g101
g102
ssg83
g1165
sg76
(lp1176
S':'
asbag69
(g90
g71
NtRp1177
(dp1178
g74
(dp1179
sg83
g1165
sg76
(lp1180
g69
(g70
g71
NtRp1181
(dp1182
g74
(dp1183
g82
I3
ssg83
g1177
sg76
(lp1184
S''
asbasbasbag69
(g85
g71
NtRp1185
(dp1186
g74
(dp1187
sg83
g1041
sg76
(lp1188
g69
(g90
g71
NtRp1189
(dp1190
g74
(dp1191
g94
g95
ssg83
g1185
sg76
(lp1192
g452
asbag69
(g90
g71
NtRp1193
(dp1194
g74
(dp1195
g101
g102
ssg83
g1185
sg76
(lp1196
S':'
asbag69
(g90
g71
NtRp1197
(dp1198
g74
(dp1199
sg83
g1185
sg76
(lp1200
g69
(g70
g71
NtRp1201
(dp1202
g74
(dp1203
g82
I3
ssg83
g1197
sg76
(lp1204
S''
asbasbasbasbasbasbasbag69
(g85
g71
NtRp1205
(dp1206
g74
(dp1207
sg83
g268
sg76
(lp1208
g69
(g90
g71
NtRp1209
(dp1210
g74
(dp1211
g94
g95
ssg83
g1205
sg76
(lp1212
S'session_id_welcome'
p1213
asbag69
(g90
g71
NtRp1214
(dp1215
g74
(dp1216
g101
g102
ssg83
g1205
sg76
(lp1217
S':'
asbag69
(g90
g71
NtRp1218
(dp1219
g74
(dp1220
sg83
g1205
sg76
(lp1221
g69
(g70
g71
NtRp1222
(dp1223
g74
(dp1224
g82
I4
ssg83
g1218
sg76
(lp1225
g69
(g78
g71
NtRp1226
(dp1227
g74
(dp1228
g82
I3
ssg83
Nsg76
(lp1229
g69
(g85
g71
NtRp1230
(dp1231
g74
(dp1232
sg83
g1226
sg76
(lp1233
g69
(g90
g71
NtRp1234
(dp1235
g74
(dp1236
g94
g95
ssg83
g1230
sg76
(lp1237
g305
asbag69
(g90
g71
NtRp1238
(dp1239
g74
(dp1240
g101
g102
ssg83
g1230
sg76
(lp1241
S':'
asbag69
(g90
g71
NtRp1242
(dp1243
g74
(dp1244
sg83
g1230
sg76
(lp1245
g69
(g70
g71
NtRp1246
(dp1247
g74
(dp1248
g82
I3
ssg83
g1242
sg76
(lp1249
S''
asbasbasbag69
(g85
g71
NtRp1250
(dp1251
g74
(dp1252
sg83
g1226
sg76
(lp1253
g69
(g90
g71
NtRp1254
(dp1255
g74
(dp1256
g94
g95
ssg83
g1250
sg76
(lp1257
g326
asbag69
(g90
g71
NtRp1258
(dp1259
g74
(dp1260
g101
g102
ssg83
g1250
sg76
(lp1261
S':'
asbag69
(g90
g71
NtRp1262
(dp1263
g74
(dp1264
sg83
g1250
sg76
(lp1265
g69
(g70
g71
NtRp1266
(dp1267
g74
(dp1268
g82
I3
ssg83
g1262
sg76
(lp1269
S''
asbasbasbag69
(g85
g71
NtRp1270
(dp1271
g74
(dp1272
sg83
g1226
sg76
(lp1273
g69
(g90
g71
NtRp1274
(dp1275
g74
(dp1276
g94
g95
ssg83
g1270
sg76
(lp1277
g347
asbag69
(g90
g71
NtRp1278
(dp1279
g74
(dp1280
g101
g102
ssg83
g1270
sg76
(lp1281
S':'
asbag69
(g90
g71
NtRp1282
(dp1283
g74
(dp1284
sg83
g1270
sg76
(lp1285
g69
(g70
g71
NtRp1286
(dp1287
g74
(dp1288
g82
I3
ssg83
g1282
sg76
(lp1289
S''
asbasbasbag69
(g85
g71
NtRp1290
(dp1291
g74
(dp1292
sg83
g1226
sg76
(lp1293
g69
(g90
g71
NtRp1294
(dp1295
g74
(dp1296
g94
g95
ssg83
g1290
sg76
(lp1297
g368
asbag69
(g90
g71
NtRp1298
(dp1299
g74
(dp1300
g101
g102
ssg83
g1290
sg76
(lp1301
S':'
asbag69
(g90
g71
NtRp1302
(dp1303
g74
(dp1304
sg83
g1290
sg76
(lp1305
g69
(g70
g71
NtRp1306
(dp1307
g74
(dp1308
g82
I3
ssg83
g1302
sg76
(lp1309
S''
asbasbasbag69
(g85
g71
NtRp1310
(dp1311
g74
(dp1312
sg83
g1226
sg76
(lp1313
g69
(g90
g71
NtRp1314
(dp1315
g74
(dp1316
g94
g95
ssg83
g1310
sg76
(lp1317
g389
asbag69
(g90
g71
NtRp1318
(dp1319
g74
(dp1320
g101
g102
ssg83
g1310
sg76
(lp1321
S':'
asbag69
(g90
g71
NtRp1322
(dp1323
g74
(dp1324
sg83
g1310
sg76
(lp1325
g69
(g70
g71
NtRp1326
(dp1327
g74
(dp1328
g82
I3
ssg83
g1322
sg76
(lp1329
S''
asbasbasbag69
(g85
g71
NtRp1330
(dp1331
g74
(dp1332
sg83
g1226
sg76
(lp1333
g69
(g90
g71
NtRp1334
(dp1335
g74
(dp1336
g94
g95
ssg83
g1330
sg76
(lp1337
g410
asbag69
(g90
g71
NtRp1338
(dp1339
g74
(dp1340
g101
g102
ssg83
g1330
sg76
(lp1341
S':'
asbag69
(g90
g71
NtRp1342
(dp1343
g74
(dp1344
sg83
g1330
sg76
(lp1345
g69
(g70
g71
NtRp1346
(dp1347
g74
(dp1348
g82
I3
ssg83
g1342
sg76
(lp1349
S''
asbasbasbag69
(g85
g71
NtRp1350
(dp1351
g74
(dp1352
sg83
g1226
sg76
(lp1353
g69
(g90
g71
NtRp1354
(dp1355
g74
(dp1356
g94
g95
ssg83
g1350
sg76
(lp1357
g431
asbag69
(g90
g71
NtRp1358
(dp1359
g74
(dp1360
g101
g102
ssg83
g1350
sg76
(lp1361
S':'
asbag69
(g90
g71
NtRp1362
(dp1363
g74
(dp1364
sg83
g1350
sg76
(lp1365
g69
(g70
g71
NtRp1366
(dp1367
g74
(dp1368
g82
I3
ssg83
g1362
sg76
(lp1369
S''
asbasbasbag69
(g85
g71
NtRp1370
(dp1371
g74
(dp1372
sg83
g1226
sg76
(lp1373
g69
(g90
g71
NtRp1374
(dp1375
g74
(dp1376
g94
g95
ssg83
g1370
sg76
(lp1377
g452
asbag69
(g90
g71
NtRp1378
(dp1379
g74
(dp1380
g101
g102
ssg83
g1370
sg76
(lp1381
S':'
asbag69
(g90
g71
NtRp1382
(dp1383
g74
(dp1384
sg83
g1370
sg76
(lp1385
g69
(g70
g71
NtRp1386
(dp1387
g74
(dp1388
g82
I3
ssg83
g1382
sg76
(lp1389
S''
asbasbasbasbasbasbasbasbasbasbasbag69
(g85
g71
NtRp1390
(dp1391
g74
(dp1392
sg83
g79
sg76
(lp1393
g69
(g90
g71
NtRp1394
(dp1395
g74
(dp1396
g94
g95
ssg83
g1390
sg76
(lp1397
S'env'
p1398
asbag69
(g90
g71
NtRp1399
(dp1400
g74
(dp1401
g101
g102
ssg83
g1390
sg76
(lp1402
S':'
asbag69
(g90
g71
NtRp1403
(dp1404
g74
(dp1405
sg83
g1390
sg76
(lp1406
g69
(g70
g71
NtRp1407
(dp1408
g74
(dp1409
g82
I5
ssg83
g1403
sg76
(lp1410
g69
(g78
g71
NtRp1411
(dp1412
g74
(dp1413
g82
I4
ssg83
Nsg76
(lp1414
g69
(g85
g71
NtRp1415
(dp1416
g74
(dp1417
sg83
g1411
sg76
(lp1418
g69
(g90
g71
NtRp1419
(dp1420
g74
(dp1421
g94
g95
ssg83
g1415
sg76
(lp1422
S'app_folders'
p1423
asbag69
(g90
g71
NtRp1424
(dp1425
g74
(dp1426
g101
g102
ssg83
g1415
sg76
(lp1427
S':'
asbag69
(g90
g71
NtRp1428
(dp1429
g74
(dp1430
sg83
g1415
sg76
(lp1431
g69
(g70
g71
NtRp1432
(dp1433
g74
(dp1434
g82
I4
ssg83
g1428
sg76
(lp1435
S"set(['/home/ian/web2py/applications/topoi/', '/home/ian/web2py/applications/welcome/', '/home/ian/web2py/applications/blog/', '/home/ian/web2py/applications/admin/'])"
p1436
asbasbasbag69
(g85
g71
NtRp1437
(dp1438
g74
(dp1439
sg83
g1411
sg76
(lp1440
g69
(g90
g71
NtRp1441
(dp1442
g74
(dp1443
g94
g95
ssg83
g1437
sg76
(lp1444
S'applications_parent'
p1445
asbag69
(g90
g71
NtRp1446
(dp1447
g74
(dp1448
g101
g102
ssg83
g1437
sg76
(lp1449
S':'
asbag69
(g90
g71
NtRp1450
(dp1451
g74
(dp1452
sg83
g1437
sg76
(lp1453
g69
(g70
g71
NtRp1454
(dp1455
g74
(dp1456
g82
I4
ssg83
g1450
sg76
(lp1457
S'/home/ian/web2py'
p1458
asbasbasbag69
(g85
g71
NtRp1459
(dp1460
g74
(dp1461
sg83
g1411
sg76
(lp1462
g69
(g90
g71
NtRp1463
(dp1464
g74
(dp1465
g94
g95
ssg83
g1459
sg76
(lp1466
S'cmd_args'
p1467
asbag69
(g90
g71
NtRp1468
(dp1469
g74
(dp1470
g101
g102
ssg83
g1459
sg76
(lp1471
S':'
asbag69
(g90
g71
NtRp1472
(dp1473
g74
(dp1474
sg83
g1459
sg76
(lp1475
g69
(g70
g71
NtRp1476
(dp1477
g74
(dp1478
g82
I4
ssg83
g1472
sg76
(lp1479
g69
(g78
g71
NtRp1480
(dp1481
g74
(dp1482
g82
I3
ssg83
Nsg76
(lp1483
sbasbasbasbag69
(g85
g71
NtRp1484
(dp1485
g74
(dp1486
sg83
g1411
sg76
(lp1487
g69
(g90
g71
NtRp1488
(dp1489
g74
(dp1490
g94
g95
ssg83
g1484
sg76
(lp1491
S'cmd_options'
p1492
asbag69
(g90
g71
NtRp1493
(dp1494
g74
(dp1495
g101
g102
ssg83
g1484
sg76
(lp1496
S':'
asbag69
(g90
g71
NtRp1497
(dp1498
g74
(dp1499
sg83
g1484
sg76
(lp1500
g69
(g70
g71
NtRp1501
(dp1502
g74
(dp1503
g82
I4
ssg83
g1497
sg76
(lp1504
S"<Values at 0x1361b00: {'verbose': False, 'ip': '127.0.0.1', 'shutdown_timeout': 5, 'taskbar': False, 'nocron': False, 'pid_filename': 'httpserver.pid', 'maxthreads': None, 'softcron': False, 'server_name': 'Ariel-ubuntu', 'bpython': False, 'nogui': False, 'port': 8000, 'extcron': False, 'debuglevel': 30, 'test': None, 'folder': '/home/ian/web2py', 'config': '', 'import_models': False, 'winservice': '', 'shell': None, 'run': '', 'log_filename': 'httpserver.log', 'args': [''], 'socket_timeout': 1, 'ssl_ca_certificate': None, 'scheduler': None, 'profiler_filename': None, 'ssl_private_key': '', 'password': '<ask>', 'request_queue_size': 5, 'ssl_certificate': '', 'cronjob': False, 'numthreads': None, 'quiet': False, 'interfaces': None, 'minthreads': None, 'timeout': 10, 'plain': False, 'nobanner': False}>"
p1505
asbasbasbag69
(g85
g71
NtRp1506
(dp1507
g74
(dp1508
sg83
g1411
sg76
(lp1509
g69
(g90
g71
NtRp1510
(dp1511
g74
(dp1512
g94
g95
ssg83
g1506
sg76
(lp1513
S'content_length'
p1514
asbag69
(g90
g71
NtRp1515
(dp1516
g74
(dp1517
g101
g102
ssg83
g1506
sg76
(lp1518
S':'
asbag69
(g90
g71
NtRp1519
(dp1520
g74
(dp1521
sg83
g1506
sg76
(lp1522
g69
(g70
g71
NtRp1523
(dp1524
g74
(dp1525
g82
I4
ssg83
g1519
sg76
(lp1526
S'117'
p1527
asbasbasbag69
(g85
g71
NtRp1528
(dp1529
g74
(dp1530
sg83
g1411
sg76
(lp1531
g69
(g90
g71
NtRp1532
(dp1533
g74
(dp1534
g94
g95
ssg83
g1528
sg76
(lp1535
S'content_type'
p1536
asbag69
(g90
g71
NtRp1537
(dp1538
g74
(dp1539
g101
g102
ssg83
g1528
sg76
(lp1540
S':'
asbag69
(g90
g71
NtRp1541
(dp1542
g74
(dp1543
sg83
g1528
sg76
(lp1544
g69
(g70
g71
NtRp1545
(dp1546
g74
(dp1547
g82
I4
ssg83
g1541
sg76
(lp1548
S'application/x-www-form-urlencoded; charset=UTF-8'
p1549
asbasbasbag69
(g85
g71
NtRp1550
(dp1551
g74
(dp1552
sg83
g1411
sg76
(lp1553
g69
(g90
g71
NtRp1554
(dp1555
g74
(dp1556
g94
g95
ssg83
g1550
sg76
(lp1557
S'db_sessions'
p1558
asbag69
(g90
g71
NtRp1559
(dp1560
g74
(dp1561
g101
g102
ssg83
g1550
sg76
(lp1562
S':'
asbag69
(g90
g71
NtRp1563
(dp1564
g74
(dp1565
sg83
g1550
sg76
(lp1566
g69
(g70
g71
NtRp1567
(dp1568
g74
(dp1569
g82
I4
ssg83
g1563
sg76
(lp1570
S'set([])'
p1571
asbasbasbag69
(g85
g71
NtRp1572
(dp1573
g74
(dp1574
sg83
g1411
sg76
(lp1575
g69
(g90
g71
NtRp1576
(dp1577
g74
(dp1578
g94
g95
ssg83
g1572
sg76
(lp1579
S'debugging'
p1580
asbag69
(g90
g71
NtRp1581
(dp1582
g74
(dp1583
g101
g102
ssg83
g1572
sg76
(lp1584
S':'
asbag69
(g90
g71
NtRp1585
(dp1586
g74
(dp1587
sg83
g1572
sg76
(lp1588
g69
(g70
g71
NtRp1589
(dp1590
g74
(dp1591
g82
I4
ssg83
g1585
sg76
(lp1592
S'False'
p1593
asbasbasbag69
(g85
g71
NtRp1594
(dp1595
g74
(dp1596
sg83
g1411
sg76
(lp1597
g69
(g90
g71
NtRp1598
(dp1599
g74
(dp1600
g94
g95
ssg83
g1594
sg76
(lp1601
S'gluon_parent'
p1602
asbag69
(g90
g71
NtRp1603
(dp1604
g74
(dp1605
g101
g102
ssg83
g1594
sg76
(lp1606
S':'
asbag69
(g90
g71
NtRp1607
(dp1608
g74
(dp1609
sg83
g1594
sg76
(lp1610
g69
(g70
g71
NtRp1611
(dp1612
g74
(dp1613
g82
I4
ssg83
g1607
sg76
(lp1614
S'/home/ian/web2py'
p1615
asbasbasbag69
(g85
g71
NtRp1616
(dp1617
g74
(dp1618
sg83
g1411
sg76
(lp1619
g69
(g90
g71
NtRp1620
(dp1621
g74
(dp1622
g94
g95
ssg83
g1616
sg76
(lp1623
S'http_accept'
p1624
asbag69
(g90
g71
NtRp1625
(dp1626
g74
(dp1627
g101
g102
ssg83
g1616
sg76
(lp1628
S':'
asbag69
(g90
g71
NtRp1629
(dp1630
g74
(dp1631
sg83
g1616
sg76
(lp1632
g69
(g70
g71
NtRp1633
(dp1634
g74
(dp1635
g82
I4
ssg83
g1629
sg76
(lp1636
S'*/*'
p1637
asbasbasbag69
(g85
g71
NtRp1638
(dp1639
g74
(dp1640
sg83
g1411
sg76
(lp1641
g69
(g90
g71
NtRp1642
(dp1643
g74
(dp1644
g94
g95
ssg83
g1638
sg76
(lp1645
S'http_accept_charset'
p1646
asbag69
(g90
g71
NtRp1647
(dp1648
g74
(dp1649
g101
g102
ssg83
g1638
sg76
(lp1650
S':'
asbag69
(g90
g71
NtRp1651
(dp1652
g74
(dp1653
sg83
g1638
sg76
(lp1654
g69
(g70
g71
NtRp1655
(dp1656
g74
(dp1657
g82
I4
ssg83
g1651
sg76
(lp1658
S'ISO-8859-1,utf-8;q=0.7,*;q=0.7'
p1659
asbasbasbag69
(g85
g71
NtRp1660
(dp1661
g74
(dp1662
sg83
g1411
sg76
(lp1663
g69
(g90
g71
NtRp1664
(dp1665
g74
(dp1666
g94
g95
ssg83
g1660
sg76
(lp1667
S'http_accept_encoding'
p1668
asbag69
(g90
g71
NtRp1669
(dp1670
g74
(dp1671
g101
g102
ssg83
g1660
sg76
(lp1672
S':'
asbag69
(g90
g71
NtRp1673
(dp1674
g74
(dp1675
sg83
g1660
sg76
(lp1676
g69
(g70
g71
NtRp1677
(dp1678
g74
(dp1679
g82
I4
ssg83
g1673
sg76
(lp1680
S'gzip, deflate'
p1681
asbasbasbag69
(g85
g71
NtRp1682
(dp1683
g74
(dp1684
sg83
g1411
sg76
(lp1685
g69
(g90
g71
NtRp1686
(dp1687
g74
(dp1688
g94
g95
ssg83
g1682
sg76
(lp1689
S'http_accept_language'
p1690
asbag69
(g90
g71
NtRp1691
(dp1692
g74
(dp1693
g101
g102
ssg83
g1682
sg76
(lp1694
S':'
asbag69
(g90
g71
NtRp1695
(dp1696
g74
(dp1697
sg83
g1682
sg76
(lp1698
g69
(g70
g71
NtRp1699
(dp1700
g74
(dp1701
g82
I4
ssg83
g1695
sg76
(lp1702
S'en-us,en;q=0.5'
p1703
asbasbasbag69
(g85
g71
NtRp1704
(dp1705
g74
(dp1706
sg83
g1411
sg76
(lp1707
g69
(g90
g71
NtRp1708
(dp1709
g74
(dp1710
g94
g95
ssg83
g1704
sg76
(lp1711
S'http_cache_control'
p1712
asbag69
(g90
g71
NtRp1713
(dp1714
g74
(dp1715
g101
g102
ssg83
g1704
sg76
(lp1716
S':'
asbag69
(g90
g71
NtRp1717
(dp1718
g74
(dp1719
sg83
g1704
sg76
(lp1720
g69
(g70
g71
NtRp1721
(dp1722
g74
(dp1723
g82
I4
ssg83
g1717
sg76
(lp1724
S'no-cache'
p1725
asbasbasbag69
(g85
g71
NtRp1726
(dp1727
g74
(dp1728
sg83
g1411
sg76
(lp1729
g69
(g90
g71
NtRp1730
(dp1731
g74
(dp1732
g94
g95
ssg83
g1726
sg76
(lp1733
S'http_connection'
p1734
asbag69
(g90
g71
NtRp1735
(dp1736
g74
(dp1737
g101
g102
ssg83
g1726
sg76
(lp1738
S':'
asbag69
(g90
g71
NtRp1739
(dp1740
g74
(dp1741
sg83
g1726
sg76
(lp1742
g69
(g70
g71
NtRp1743
(dp1744
g74
(dp1745
g82
I4
ssg83
g1739
sg76
(lp1746
S'keep-alive'
p1747
asbasbasbag69
(g85
g71
NtRp1748
(dp1749
g74
(dp1750
sg83
g1411
sg76
(lp1751
g69
(g90
g71
NtRp1752
(dp1753
g74
(dp1754
g94
g95
ssg83
g1748
sg76
(lp1755
S'http_content_length'
p1756
asbag69
(g90
g71
NtRp1757
(dp1758
g74
(dp1759
g101
g102
ssg83
g1748
sg76
(lp1760
S':'
asbag69
(g90
g71
NtRp1761
(dp1762
g74
(dp1763
sg83
g1748
sg76
(lp1764
g69
(g70
g71
NtRp1765
(dp1766
g74
(dp1767
g82
I4
ssg83
g1761
sg76
(lp1768
g1527
asbasbasbag69
(g85
g71
NtRp1769
(dp1770
g74
(dp1771
sg83
g1411
sg76
(lp1772
g69
(g90
g71
NtRp1773
(dp1774
g74
(dp1775
g94
g95
ssg83
g1769
sg76
(lp1776
S'http_content_type'
p1777
asbag69
(g90
g71
NtRp1778
(dp1779
g74
(dp1780
g101
g102
ssg83
g1769
sg76
(lp1781
S':'
asbag69
(g90
g71
NtRp1782
(dp1783
g74
(dp1784
sg83
g1769
sg76
(lp1785
g69
(g70
g71
NtRp1786
(dp1787
g74
(dp1788
g82
I4
ssg83
g1782
sg76
(lp1789
g1549
asbasbasbag69
(g85
g71
NtRp1790
(dp1791
g74
(dp1792
sg83
g1411
sg76
(lp1793
g69
(g90
g71
NtRp1794
(dp1795
g74
(dp1796
g94
g95
ssg83
g1790
sg76
(lp1797
S'http_cookie'
p1798
asbag69
(g90
g71
NtRp1799
(dp1800
g74
(dp1801
g101
g102
ssg83
g1790
sg76
(lp1802
S':'
asbag69
(g90
g71
NtRp1803
(dp1804
g74
(dp1805
sg83
g1790
sg76
(lp1806
g69
(g70
g71
NtRp1807
(dp1808
g74
(dp1809
g82
I4
ssg83
g1803
sg76
(lp1810
S'__utma_a2a=9789918665.1351576430.1320019504.1320019504.1320019504.1; session_id_grades=127.0.0.1-dd79f5dc-b5bd-45ea-8db7-d0bfdd939f5e; session_id_paideia=127.0.0.1-e39bb56e-30eb-4da5-9f4e-559a6c22ef0d; session_id_topoi=127.0.0.1-36a47132-9f63-403c-93e8-4b961484278b; session_id_welcome=127.0.0.1-71b873b5-a388-4219-9cc8-2637dd6e36c2; session_id_admin=127.0.0.1-f63c967d-18bc-4a61-8e33-0a7ec5b4da07; session_id_blog=127.0.0.1-448ebfff-1985-4742-b850-118a78702f09'
p1811
asbasbasbag69
(g85
g71
NtRp1812
(dp1813
g74
(dp1814
sg83
g1411
sg76
(lp1815
g69
(g90
g71
NtRp1816
(dp1817
g74
(dp1818
g94
g95
ssg83
g1812
sg76
(lp1819
S'http_host'
p1820
asbag69
(g90
g71
NtRp1821
(dp1822
g74
(dp1823
g101
g102
ssg83
g1812
sg76
(lp1824
S':'
asbag69
(g90
g71
NtRp1825
(dp1826
g74
(dp1827
sg83
g1812
sg76
(lp1828
g69
(g70
g71
NtRp1829
(dp1830
g74
(dp1831
g82
I4
ssg83
g1825
sg76
(lp1832
S'127.0.0.1:8000'
p1833
asbasbasbag69
(g85
g71
NtRp1834
(dp1835
g74
(dp1836
sg83
g1411
sg76
(lp1837
g69
(g90
g71
NtRp1838
(dp1839
g74
(dp1840
g94
g95
ssg83
g1834
sg76
(lp1841
S'http_pragma'
p1842
asbag69
(g90
g71
NtRp1843
(dp1844
g74
(dp1845
g101
g102
ssg83
g1834
sg76
(lp1846
S':'
asbag69
(g90
g71
NtRp1847
(dp1848
g74
(dp1849
sg83
g1834
sg76
(lp1850
g69
(g70
g71
NtRp1851
(dp1852
g74
(dp1853
g82
I4
ssg83
g1847
sg76
(lp1854
S'no-cache'
p1855
asbasbasbag69
(g85
g71
NtRp1856
(dp1857
g74
(dp1858
sg83
g1411
sg76
(lp1859
g69
(g90
g71
NtRp1860
(dp1861
g74
(dp1862
g94
g95
ssg83
g1856
sg76
(lp1863
S'http_referer'
p1864
asbag69
(g90
g71
NtRp1865
(dp1866
g74
(dp1867
g101
g102
ssg83
g1856
sg76
(lp1868
S':'
asbag69
(g90
g71
NtRp1869
(dp1870
g74
(dp1871
sg83
g1856
sg76
(lp1872
g69
(g70
g71
NtRp1873
(dp1874
g74
(dp1875
g82
I4
ssg83
g1869
sg76
(lp1876
S'http://127.0.0.1:8000/blog/plugin_blog/articles/1'
p1877
asbasbasbag69
(g85
g71
NtRp1878
(dp1879
g74
(dp1880
sg83
g1411
sg76
(lp1881
g69
(g90
g71
NtRp1882
(dp1883
g74
(dp1884
g94
g95
ssg83
g1878
sg76
(lp1885
S'http_user_agent'
p1886
asbag69
(g90
g71
NtRp1887
(dp1888
g74
(dp1889
g101
g102
ssg83
g1878
sg76
(lp1890
S':'
asbag69
(g90
g71
NtRp1891
(dp1892
g74
(dp1893
sg83
g1878
sg76
(lp1894
g69
(g70
g71
NtRp1895
(dp1896
g74
(dp1897
g82
I4
ssg83
g1891
sg76
(lp1898
S'Mozilla/5.0 (Ubuntu; X11; Linux x86_64; rv:9.0.1) Gecko/20100101 Firefox/9.0.1'
p1899
asbasbasbag69
(g85
g71
NtRp1900
(dp1901
g74
(dp1902
sg83
g1411
sg76
(lp1903
g69
(g90
g71
NtRp1904
(dp1905
g74
(dp1906
g94
g95
ssg83
g1900
sg76
(lp1907
S'http_web2py_component_element'
p1908
asbag69
(g90
g71
NtRp1909
(dp1910
g74
(dp1911
g101
g102
ssg83
g1900
sg76
(lp1912
S':'
asbag69
(g90
g71
NtRp1913
(dp1914
g74
(dp1915
sg83
g1900
sg76
(lp1916
g69
(g70
g71
NtRp1917
(dp1918
g74
(dp1919
g82
I4
ssg83
g1913
sg76
(lp1920
g202
asbasbasbag69
(g85
g71
NtRp1921
(dp1922
g74
(dp1923
sg83
g1411
sg76
(lp1924
g69
(g90
g71
NtRp1925
(dp1926
g74
(dp1927
g94
g95
ssg83
g1921
sg76
(lp1928
S'http_web2py_component_location'
p1929
asbag69
(g90
g71
NtRp1930
(dp1931
g74
(dp1932
g101
g102
ssg83
g1921
sg76
(lp1933
S':'
asbag69
(g90
g71
NtRp1934
(dp1935
g74
(dp1936
sg83
g1921
sg76
(lp1937
g69
(g70
g71
NtRp1938
(dp1939
g74
(dp1940
g82
I4
ssg83
g1934
sg76
(lp1941
S'http://127.0.0.1:8000/blog/plugin_blog/articles/1'
p1942
asbasbasbag69
(g85
g71
NtRp1943
(dp1944
g74
(dp1945
sg83
g1411
sg76
(lp1946
g69
(g90
g71
NtRp1947
(dp1948
g74
(dp1949
g94
g95
ssg83
g1943
sg76
(lp1950
S'http_x_requested_with'
p1951
asbag69
(g90
g71
NtRp1952
(dp1953
g74
(dp1954
g101
g102
ssg83
g1943
sg76
(lp1955
S':'
asbag69
(g90
g71
NtRp1956
(dp1957
g74
(dp1958
sg83
g1943
sg76
(lp1959
g69
(g70
g71
NtRp1960
(dp1961
g74
(dp1962
g82
I4
ssg83
g1956
sg76
(lp1963
S'XMLHttpRequest'
p1964
asbasbasbag69
(g85
g71
NtRp1965
(dp1966
g74
(dp1967
sg83
g1411
sg76
(lp1968
g69
(g90
g71
NtRp1969
(dp1970
g74
(dp1971
g94
g95
ssg83
g1965
sg76
(lp1972
S'is_jython'
p1973
asbag69
(g90
g71
NtRp1974
(dp1975
g74
(dp1976
g101
g102
ssg83
g1965
sg76
(lp1977
S':'
asbag69
(g90
g71
NtRp1978
(dp1979
g74
(dp1980
sg83
g1965
sg76
(lp1981
g69
(g70
g71
NtRp1982
(dp1983
g74
(dp1984
g82
I4
ssg83
g1978
sg76
(lp1985
g1593
asbasbasbag69
(g85
g71
NtRp1986
(dp1987
g74
(dp1988
sg83
g1411
sg76
(lp1989
g69
(g90
g71
NtRp1990
(dp1991
g74
(dp1992
g94
g95
ssg83
g1986
sg76
(lp1993
S'is_pypy'
p1994
asbag69
(g90
g71
NtRp1995
(dp1996
g74
(dp1997
g101
g102
ssg83
g1986
sg76
(lp1998
S':'
asbag69
(g90
g71
NtRp1999
(dp2000
g74
(dp2001
sg83
g1986
sg76
(lp2002
g69
(g70
g71
NtRp2003
(dp2004
g74
(dp2005
g82
I4
ssg83
g1999
sg76
(lp2006
g1593
asbasbasbag69
(g85
g71
NtRp2007
(dp2008
g74
(dp2009
sg83
g1411
sg76
(lp2010
g69
(g90
g71
NtRp2011
(dp2012
g74
(dp2013
g94
g95
ssg83
g2007
sg76
(lp2014
S'path_info'
p2015
asbag69
(g90
g71
NtRp2016
(dp2017
g74
(dp2018
g101
g102
ssg83
g2007
sg76
(lp2019
S':'
asbag69
(g90
g71
NtRp2020
(dp2021
g74
(dp2022
sg83
g2007
sg76
(lp2023
g69
(g70
g71
NtRp2024
(dp2025
g74
(dp2026
g82
I4
ssg83
g2020
sg76
(lp2027
S'/blog/plugin_comments/post.load'
p2028
asbasbasbag69
(g85
g71
NtRp2029
(dp2030
g74
(dp2031
sg83
g1411
sg76
(lp2032
g69
(g90
g71
NtRp2033
(dp2034
g74
(dp2035
g94
g95
ssg83
g2029
sg76
(lp2036
S'query_string'
p2037
asbag69
(g90
g71
NtRp2038
(dp2039
g74
(dp2040
g101
g102
ssg83
g2029
sg76
(lp2041
S':'
asbag69
(g90
g71
NtRp2042
(dp2043
g74
(dp2044
sg83
g2029
sg76
(lp2045
g69
(g70
g71
NtRp2046
(dp2047
g74
(dp2048
g82
I4
ssg83
g2042
sg76
(lp2049
S''
asbasbasbag69
(g85
g71
NtRp2050
(dp2051
g74
(dp2052
sg83
g1411
sg76
(lp2053
g69
(g90
g71
NtRp2054
(dp2055
g74
(dp2056
g94
g95
ssg83
g2050
sg76
(lp2057
S'remote_addr'
p2058
asbag69
(g90
g71
NtRp2059
(dp2060
g74
(dp2061
g101
g102
ssg83
g2050
sg76
(lp2062
S':'
asbag69
(g90
g71
NtRp2063
(dp2064
g74
(dp2065
sg83
g2050
sg76
(lp2066
g69
(g70
g71
NtRp2067
(dp2068
g74
(dp2069
g82
I4
ssg83
g2063
sg76
(lp2070
g224
asbasbasbag69
(g85
g71
NtRp2071
(dp2072
g74
(dp2073
sg83
g1411
sg76
(lp2074
g69
(g90
g71
NtRp2075
(dp2076
g74
(dp2077
g94
g95
ssg83
g2071
sg76
(lp2078
S'remote_port'
p2079
asbag69
(g90
g71
NtRp2080
(dp2081
g74
(dp2082
g101
g102
ssg83
g2071
sg76
(lp2083
S':'
asbag69
(g90
g71
NtRp2084
(dp2085
g74
(dp2086
sg83
g2071
sg76
(lp2087
g69
(g70
g71
NtRp2088
(dp2089
g74
(dp2090
g82
I4
ssg83
g2084
sg76
(lp2091
S'34797'
p2092
asbasbasbag69
(g85
g71
NtRp2093
(dp2094
g74
(dp2095
sg83
g1411
sg76
(lp2096
g69
(g90
g71
NtRp2097
(dp2098
g74
(dp2099
g94
g95
ssg83
g2093
sg76
(lp2100
S'request_method'
p2101
asbag69
(g90
g71
NtRp2102
(dp2103
g74
(dp2104
g101
g102
ssg83
g2093
sg76
(lp2105
S':'
asbag69
(g90
g71
NtRp2106
(dp2107
g74
(dp2108
sg83
g2093
sg76
(lp2109
g69
(g70
g71
NtRp2110
(dp2111
g74
(dp2112
g82
I4
ssg83
g2106
sg76
(lp2113
S'POST'
p2114
asbasbasbag69
(g85
g71
NtRp2115
(dp2116
g74
(dp2117
sg83
g1411
sg76
(lp2118
g69
(g90
g71
NtRp2119
(dp2120
g74
(dp2121
g94
g95
ssg83
g2115
sg76
(lp2122
S'script_name'
p2123
asbag69
(g90
g71
NtRp2124
(dp2125
g74
(dp2126
g101
g102
ssg83
g2115
sg76
(lp2127
S':'
asbag69
(g90
g71
NtRp2128
(dp2129
g74
(dp2130
sg83
g2115
sg76
(lp2131
g69
(g70
g71
NtRp2132
(dp2133
g74
(dp2134
g82
I4
ssg83
g2128
sg76
(lp2135
S''
asbasbasbag69
(g85
g71
NtRp2136
(dp2137
g74
(dp2138
sg83
g1411
sg76
(lp2139
g69
(g90
g71
NtRp2140
(dp2141
g74
(dp2142
g94
g95
ssg83
g2136
sg76
(lp2143
S'server_name'
p2144
asbag69
(g90
g71
NtRp2145
(dp2146
g74
(dp2147
g101
g102
ssg83
g2136
sg76
(lp2148
S':'
asbag69
(g90
g71
NtRp2149
(dp2150
g74
(dp2151
sg83
g2136
sg76
(lp2152
g69
(g70
g71
NtRp2153
(dp2154
g74
(dp2155
g82
I4
ssg83
g2149
sg76
(lp2156
S'Ariel-ubuntu'
p2157
asbasbasbag69
(g85
g71
NtRp2158
(dp2159
g74
(dp2160
sg83
g1411
sg76
(lp2161
g69
(g90
g71
NtRp2162
(dp2163
g74
(dp2164
g94
g95
ssg83
g2158
sg76
(lp2165
S'server_port'
p2166
asbag69
(g90
g71
NtRp2167
(dp2168
g74
(dp2169
g101
g102
ssg83
g2158
sg76
(lp2170
S':'
asbag69
(g90
g71
NtRp2171
(dp2172
g74
(dp2173
sg83
g2158
sg76
(lp2174
g69
(g70
g71
NtRp2175
(dp2176
g74
(dp2177
g82
I4
ssg83
g2171
sg76
(lp2178
S'8000'
p2179
asbasbasbag69
(g85
g71
NtRp2180
(dp2181
g74
(dp2182
sg83
g1411
sg76
(lp2183
g69
(g90
g71
NtRp2184
(dp2185
g74
(dp2186
g94
g95
ssg83
g2180
sg76
(lp2187
S'server_protocol'
p2188
asbag69
(g90
g71
NtRp2189
(dp2190
g74
(dp2191
g101
g102
ssg83
g2180
sg76
(lp2192
S':'
asbag69
(g90
g71
NtRp2193
(dp2194
g74
(dp2195
sg83
g2180
sg76
(lp2196
g69
(g70
g71
NtRp2197
(dp2198
g74
(dp2199
g82
I4
ssg83
g2193
sg76
(lp2200
S'HTTP/1.1'
p2201
asbasbasbag69
(g85
g71
NtRp2202
(dp2203
g74
(dp2204
sg83
g1411
sg76
(lp2205
g69
(g90
g71
NtRp2206
(dp2207
g74
(dp2208
g94
g95
ssg83
g2202
sg76
(lp2209
S'server_software'
p2210
asbag69
(g90
g71
NtRp2211
(dp2212
g74
(dp2213
g101
g102
ssg83
g2202
sg76
(lp2214
S':'
asbag69
(g90
g71
NtRp2215
(dp2216
g74
(dp2217
sg83
g2202
sg76
(lp2218
g69
(g70
g71
NtRp2219
(dp2220
g74
(dp2221
g82
I4
ssg83
g2215
sg76
(lp2222
S'Rocket 1.2.4'
p2223
asbasbasbag69
(g85
g71
NtRp2224
(dp2225
g74
(dp2226
sg83
g1411
sg76
(lp2227
g69
(g90
g71
NtRp2228
(dp2229
g74
(dp2230
g94
g95
ssg83
g2224
sg76
(lp2231
S'web2py_crontype'
p2232
asbag69
(g90
g71
NtRp2233
(dp2234
g74
(dp2235
g101
g102
ssg83
g2224
sg76
(lp2236
S':'
asbag69
(g90
g71
NtRp2237
(dp2238
g74
(dp2239
sg83
g2224
sg76
(lp2240
g69
(g70
g71
NtRp2241
(dp2242
g74
(dp2243
g82
I4
ssg83
g2237
sg76
(lp2244
S'hard'
p2245
asbasbasbag69
(g85
g71
NtRp2246
(dp2247
g74
(dp2248
sg83
g1411
sg76
(lp2249
g69
(g90
g71
NtRp2250
(dp2251
g74
(dp2252
g94
g95
ssg83
g2246
sg76
(lp2253
S'web2py_path'
p2254
asbag69
(g90
g71
NtRp2255
(dp2256
g74
(dp2257
g101
g102
ssg83
g2246
sg76
(lp2258
S':'
asbag69
(g90
g71
NtRp2259
(dp2260
g74
(dp2261
sg83
g2246
sg76
(lp2262
g69
(g70
g71
NtRp2263
(dp2264
g74
(dp2265
g82
I4
ssg83
g2259
sg76
(lp2266
g1458
asbasbasbag69
(g85
g71
NtRp2267
(dp2268
g74
(dp2269
sg83
g1411
sg76
(lp2270
g69
(g90
g71
NtRp2271
(dp2272
g74
(dp2273
g94
g95
ssg83
g2267
sg76
(lp2274
S'web2py_version'
p2275
asbag69
(g90
g71
NtRp2276
(dp2277
g74
(dp2278
g101
g102
ssg83
g2267
sg76
(lp2279
S':'
asbag69
(g90
g71
NtRp2280
(dp2281
g74
(dp2282
sg83
g2267
sg76
(lp2283
g69
(g70
g71
NtRp2284
(dp2285
g74
(dp2286
g82
I4
ssg83
g2280
sg76
(lp2287
g69
(g78
g71
NtRp2288
(dp2289
g74
(dp2290
g82
I3
ssg83
Nsg76
(lp2291
g69
(g85
g71
NtRp2292
(dp2293
g74
(dp2294
sg83
g2288
sg76
(lp2295
g69
(g90
g71
NtRp2296
(dp2297
g74
(dp2298
sg83
g2292
sg76
(lp2299
g69
(g70
g71
NtRp2300
(dp2301
g74
(dp2302
g82
I3
ssg83
g2296
sg76
(lp2303
S'1'
asbasbasbag69
(g85
g71
NtRp2304
(dp2305
g74
(dp2306
sg83
g2288
sg76
(lp2307
g69
(g90
g71
NtRp2308
(dp2309
g74
(dp2310
sg83
g2304
sg76
(lp2311
g69
(g70
g71
NtRp2312
(dp2313
g74
(dp2314
g82
I3
ssg83
g2308
sg76
(lp2315
S'99'
p2316
asbasbasbag69
(g85
g71
NtRp2317
(dp2318
g74
(dp2319
sg83
g2288
sg76
(lp2320
g69
(g90
g71
NtRp2321
(dp2322
g74
(dp2323
sg83
g2317
sg76
(lp2324
g69
(g70
g71
NtRp2325
(dp2326
g74
(dp2327
g82
I3
ssg83
g2321
sg76
(lp2328
S'4'
asbasbasbag69
(g85
g71
NtRp2329
(dp2330
g74
(dp2331
sg83
g2288
sg76
(lp2332
g69
(g90
g71
NtRp2333
(dp2334
g74
(dp2335
sg83
g2329
sg76
(lp2336
g69
(g70
g71
NtRp2337
(dp2338
g74
(dp2339
g82
I3
ssg83
g2333
sg76
(lp2340
S'datetime.datetime(2011, 12, 14, 14, 46, 14)'
p2341
asbasbasbag69
(g85
g71
NtRp2342
(dp2343
g74
(dp2344
sg83
g2288
sg76
(lp2345
g69
(g90
g71
NtRp2346
(dp2347
g74
(dp2348
sg83
g2342
sg76
(lp2349
g69
(g70
g71
NtRp2350
(dp2351
g74
(dp2352
g82
I3
ssg83
g2346
sg76
(lp2353
S'stable'
p2354
asbasbasbasbasbasbasbag69
(g85
g71
NtRp2355
(dp2356
g74
(dp2357
sg83
g1411
sg76
(lp2358
g69
(g90
g71
NtRp2359
(dp2360
g74
(dp2361
g94
g95
ssg83
g2355
sg76
(lp2362
S'wsgi_errors'
p2363
asbag69
(g90
g71
NtRp2364
(dp2365
g74
(dp2366
g101
g102
ssg83
g2355
sg76
(lp2367
S':'
asbag69
(g90
g71
NtRp2368
(dp2369
g74
(dp2370
sg83
g2355
sg76
(lp2371
g69
(g70
g71
NtRp2372
(dp2373
g74
(dp2374
g82
I4
ssg83
g2368
sg76
(lp2375
S"<open file '<stderr>', mode 'w' at 0x7f67b8508270>"
p2376
asbasbasbag69
(g85
g71
NtRp2377
(dp2378
g74
(dp2379
sg83
g1411
sg76
(lp2380
g69
(g90
g71
NtRp2381
(dp2382
g74
(dp2383
g94
g95
ssg83
g2377
sg76
(lp2384
S'wsgi_file_wrapper'
p2385
asbag69
(g90
g71
NtRp2386
(dp2387
g74
(dp2388
g101
g102
ssg83
g2377
sg76
(lp2389
S':'
asbag69
(g90
g71
NtRp2390
(dp2391
g74
(dp2392
sg83
g2377
sg76
(lp2393
g69
(g70
g71
NtRp2394
(dp2395
g74
(dp2396
g82
I4
ssg83
g2390
sg76
(lp2397
S'<class wsgiref.util.FileWrapper at 0x121ec80>'
p2398
asbasbasbag69
(g85
g71
NtRp2399
(dp2400
g74
(dp2401
sg83
g1411
sg76
(lp2402
g69
(g90
g71
NtRp2403
(dp2404
g74
(dp2405
g94
g95
ssg83
g2399
sg76
(lp2406
S'wsgi_input'
p2407
asbag69
(g90
g71
NtRp2408
(dp2409
g74
(dp2410
g101
g102
ssg83
g2399
sg76
(lp2411
S':'
asbag69
(g90
g71
NtRp2412
(dp2413
g74
(dp2414
sg83
g2399
sg76
(lp2415
g69
(g70
g71
NtRp2416
(dp2417
g74
(dp2418
g82
I4
ssg83
g2412
sg76
(lp2419
S'<socket._fileobject object at 0x25546d0>'
p2420
asbasbasbag69
(g85
g71
NtRp2421
(dp2422
g74
(dp2423
sg83
g1411
sg76
(lp2424
g69
(g90
g71
NtRp2425
(dp2426
g74
(dp2427
g94
g95
ssg83
g2421
sg76
(lp2428
S'wsgi_multiprocess'
p2429
asbag69
(g90
g71
NtRp2430
(dp2431
g74
(dp2432
g101
g102
ssg83
g2421
sg76
(lp2433
S':'
asbag69
(g90
g71
NtRp2434
(dp2435
g74
(dp2436
sg83
g2421
sg76
(lp2437
g69
(g70
g71
NtRp2438
(dp2439
g74
(dp2440
g82
I4
ssg83
g2434
sg76
(lp2441
g1593
asbasbasbag69
(g85
g71
NtRp2442
(dp2443
g74
(dp2444
sg83
g1411
sg76
(lp2445
g69
(g90
g71
NtRp2446
(dp2447
g74
(dp2448
g94
g95
ssg83
g2442
sg76
(lp2449
S'wsgi_multithread'
p2450
asbag69
(g90
g71
NtRp2451
(dp2452
g74
(dp2453
g101
g102
ssg83
g2442
sg76
(lp2454
S':'
asbag69
(g90
g71
NtRp2455
(dp2456
g74
(dp2457
sg83
g2442
sg76
(lp2458
g69
(g70
g71
NtRp2459
(dp2460
g74
(dp2461
g82
I4
ssg83
g2455
sg76
(lp2462
g112
asbasbasbag69
(g85
g71
NtRp2463
(dp2464
g74
(dp2465
sg83
g1411
sg76
(lp2466
g69
(g90
g71
NtRp2467
(dp2468
g74
(dp2469
g94
g95
ssg83
g2463
sg76
(lp2470
S'wsgi_run_once'
p2471
asbag69
(g90
g71
NtRp2472
(dp2473
g74
(dp2474
g101
g102
ssg83
g2463
sg76
(lp2475
S':'
asbag69
(g90
g71
NtRp2476
(dp2477
g74
(dp2478
sg83
g2463
sg76
(lp2479
g69
(g70
g71
NtRp2480
(dp2481
g74
(dp2482
g82
I4
ssg83
g2476
sg76
(lp2483
g1593
asbasbasbag69
(g85
g71
NtRp2484
(dp2485
g74
(dp2486
sg83
g1411
sg76
(lp2487
g69
(g90
g71
NtRp2488
(dp2489
g74
(dp2490
g94
g95
ssg83
g2484
sg76
(lp2491
S'wsgi_url_scheme'
p2492
asbag69
(g90
g71
NtRp2493
(dp2494
g74
(dp2495
g101
g102
ssg83
g2484
sg76
(lp2496
S':'
asbag69
(g90
g71
NtRp2497
(dp2498
g74
(dp2499
sg83
g2484
sg76
(lp2500
g69
(g70
g71
NtRp2501
(dp2502
g74
(dp2503
g82
I4
ssg83
g2497
sg76
(lp2504
S'http'
p2505
asbasbasbag69
(g85
g71
NtRp2506
(dp2507
g74
(dp2508
sg83
g1411
sg76
(lp2509
g69
(g90
g71
NtRp2510
(dp2511
g74
(dp2512
g94
g95
ssg83
g2506
sg76
(lp2513
S'wsgi_version'
p2514
asbag69
(g90
g71
NtRp2515
(dp2516
g74
(dp2517
g101
g102
ssg83
g2506
sg76
(lp2518
S':'
asbag69
(g90
g71
NtRp2519
(dp2520
g74
(dp2521
sg83
g2506
sg76
(lp2522
g69
(g70
g71
NtRp2523
(dp2524
g74
(dp2525
g82
I4
ssg83
g2519
sg76
(lp2526
g69
(g78
g71
NtRp2527
(dp2528
g74
(dp2529
g82
I3
ssg83
Nsg76
(lp2530
g69
(g85
g71
NtRp2531
(dp2532
g74
(dp2533
sg83
g2527
sg76
(lp2534
g69
(g90
g71
NtRp2535
(dp2536
g74
(dp2537
sg83
g2531
sg76
(lp2538
g69
(g70
g71
NtRp2539
(dp2540
g74
(dp2541
g82
I3
ssg83
g2535
sg76
(lp2542
S'1'
asbasbasbag69
(g85
g71
NtRp2543
(dp2544
g74
(dp2545
sg83
g2527
sg76
(lp2546
g69
(g90
g71
NtRp2547
(dp2548
g74
(dp2549
sg83
g2543
sg76
(lp2550
g69
(g70
g71
NtRp2551
(dp2552
g74
(dp2553
g82
I3
ssg83
g2547
sg76
(lp2554
S'0'
asbasbasbasbasbasbasbasbasbasbasbag69
(g85
g71
NtRp2555
(dp2556
g74
(dp2557
sg83
g79
sg76
(lp2558
g69
(g90
g71
NtRp2559
(dp2560
g74
(dp2561
g94
g95
ssg83
g2555
sg76
(lp2562
S'extension'
p2563
asbag69
(g90
g71
NtRp2564
(dp2565
g74
(dp2566
g101
g102
ssg83
g2555
sg76
(lp2567
S':'
asbag69
(g90
g71
NtRp2568
(dp2569
g74
(dp2570
sg83
g2555
sg76
(lp2571
g69
(g70
g71
NtRp2572
(dp2573
g74
(dp2574
g82
I5
ssg83
g2568
sg76
(lp2575
S'load'
p2576
asbasbasbag69
(g85
g71
NtRp2577
(dp2578
g74
(dp2579
sg83
g79
sg76
(lp2580
g69
(g90
g71
NtRp2581
(dp2582
g74
(dp2583
g94
g95
ssg83
g2577
sg76
(lp2584
S'folder'
p2585
asbag69
(g90
g71
NtRp2586
(dp2587
g74
(dp2588
g101
g102
ssg83
g2577
sg76
(lp2589
S':'
asbag69
(g90
g71
NtRp2590
(dp2591
g74
(dp2592
sg83
g2577
sg76
(lp2593
g69
(g70
g71
NtRp2594
(dp2595
g74
(dp2596
g82
I5
ssg83
g2590
sg76
(lp2597
S'/home/ian/web2py/applications/blog/'
p2598
asbasbasbag69
(g85
g71
NtRp2599
(dp2600
g74
(dp2601
sg83
g79
sg76
(lp2602
g69
(g90
g71
NtRp2603
(dp2604
g74
(dp2605
g94
g95
ssg83
g2599
sg76
(lp2606
S'function'
p2607
asbag69
(g90
g71
NtRp2608
(dp2609
g74
(dp2610
g101
g102
ssg83
g2599
sg76
(lp2611
S':'
asbag69
(g90
g71
NtRp2612
(dp2613
g74
(dp2614
sg83
g2599
sg76
(lp2615
g69
(g70
g71
NtRp2616
(dp2617
g74
(dp2618
g82
I5
ssg83
g2612
sg76
(lp2619
S'post'
p2620
asbasbasbag69
(g85
g71
NtRp2621
(dp2622
g74
(dp2623
sg83
g79
sg76
(lp2624
g69
(g90
g71
NtRp2625
(dp2626
g74
(dp2627
g94
g95
ssg83
g2621
sg76
(lp2628
S'get_vars'
p2629
asbag69
(g90
g71
NtRp2630
(dp2631
g74
(dp2632
g101
g102
ssg83
g2621
sg76
(lp2633
S':'
asbag69
(g90
g71
NtRp2634
(dp2635
g74
(dp2636
sg83
g2621
sg76
(lp2637
g69
(g70
g71
NtRp2638
(dp2639
g74
(dp2640
g82
I5
ssg83
g2634
sg76
(lp2641
g69
(g78
g71
NtRp2642
(dp2643
g74
(dp2644
g82
I4
ssg83
Nsg76
(lp2645
sbasbasbasbag69
(g85
g71
NtRp2646
(dp2647
g74
(dp2648
sg83
g79
sg76
(lp2649
g69
(g90
g71
NtRp2650
(dp2651
g74
(dp2652
g94
g95
ssg83
g2646
sg76
(lp2653
S'global_settings'
p2654
asbag69
(g90
g71
NtRp2655
(dp2656
g74
(dp2657
g101
g102
ssg83
g2646
sg76
(lp2658
S':'
asbag69
(g90
g71
NtRp2659
(dp2660
g74
(dp2661
sg83
g2646
sg76
(lp2662
g69
(g70
g71
NtRp2663
(dp2664
g74
(dp2665
g82
I5
ssg83
g2659
sg76
(lp2666
g69
(g78
g71
NtRp2667
(dp2668
g74
(dp2669
g82
I4
ssg83
Nsg76
(lp2670
g69
(g85
g71
NtRp2671
(dp2672
g74
(dp2673
sg83
g2667
sg76
(lp2674
g69
(g90
g71
NtRp2675
(dp2676
g74
(dp2677
g94
g95
ssg83
g2671
sg76
(lp2678
g1423
asbag69
(g90
g71
NtRp2679
(dp2680
g74
(dp2681
g101
g102
ssg83
g2671
sg76
(lp2682
S':'
asbag69
(g90
g71
NtRp2683
(dp2684
g74
(dp2685
sg83
g2671
sg76
(lp2686
g69
(g70
g71
NtRp2687
(dp2688
g74
(dp2689
g82
I4
ssg83
g2683
sg76
(lp2690
S"set(['/home/ian/web2py/applications/topoi/', '/home/ian/web2py/applications/welcome/', '/home/ian/web2py/applications/blog/', '/home/ian/web2py/applications/admin/'])"
p2691
asbasbasbag69
(g85
g71
NtRp2692
(dp2693
g74
(dp2694
sg83
g2667
sg76
(lp2695
g69
(g90
g71
NtRp2696
(dp2697
g74
(dp2698
g94
g95
ssg83
g2692
sg76
(lp2699
g1445
asbag69
(g90
g71
NtRp2700
(dp2701
g74
(dp2702
g101
g102
ssg83
g2692
sg76
(lp2703
S':'
asbag69
(g90
g71
NtRp2704
(dp2705
g74
(dp2706
sg83
g2692
sg76
(lp2707
g69
(g70
g71
NtRp2708
(dp2709
g74
(dp2710
g82
I4
ssg83
g2704
sg76
(lp2711
g1458
asbasbasbag69
(g85
g71
NtRp2712
(dp2713
g74
(dp2714
sg83
g2667
sg76
(lp2715
g69
(g90
g71
NtRp2716
(dp2717
g74
(dp2718
g94
g95
ssg83
g2712
sg76
(lp2719
g1467
asbag69
(g90
g71
NtRp2720
(dp2721
g74
(dp2722
g101
g102
ssg83
g2712
sg76
(lp2723
S':'
asbag69
(g90
g71
NtRp2724
(dp2725
g74
(dp2726
sg83
g2712
sg76
(lp2727
g69
(g70
g71
NtRp2728
(dp2729
g74
(dp2730
g82
I4
ssg83
g2724
sg76
(lp2731
g69
(g78
g71
NtRp2732
(dp2733
g74
(dp2734
g82
I3
ssg83
Nsg76
(lp2735
sbasbasbasbag69
(g85
g71
NtRp2736
(dp2737
g74
(dp2738
sg83
g2667
sg76
(lp2739
g69
(g90
g71
NtRp2740
(dp2741
g74
(dp2742
g94
g95
ssg83
g2736
sg76
(lp2743
g1492
asbag69
(g90
g71
NtRp2744
(dp2745
g74
(dp2746
g101
g102
ssg83
g2736
sg76
(lp2747
S':'
asbag69
(g90
g71
NtRp2748
(dp2749
g74
(dp2750
sg83
g2736
sg76
(lp2751
g69
(g70
g71
NtRp2752
(dp2753
g74
(dp2754
g82
I4
ssg83
g2748
sg76
(lp2755
S"<Values at 0x1361b00: {'verbose': False, 'ip': '127.0.0.1', 'shutdown_timeout': 5, 'taskbar': False, 'nocron': False, 'pid_filename': 'httpserver.pid', 'maxthreads': None, 'softcron': False, 'server_name': 'Ariel-ubuntu', 'bpython': False, 'nogui': False, 'port': 8000, 'extcron': False, 'debuglevel': 30, 'test': None, 'folder': '/home/ian/web2py', 'config': '', 'import_models': False, 'winservice': '', 'shell': None, 'run': '', 'log_filename': 'httpserver.log', 'args': [''], 'socket_timeout': 1, 'ssl_ca_certificate': None, 'scheduler': None, 'profiler_filename': None, 'ssl_private_key': '', 'password': '<ask>', 'request_queue_size': 5, 'ssl_certificate': '', 'cronjob': False, 'numthreads': None, 'quiet': False, 'interfaces': None, 'minthreads': None, 'timeout': 10, 'plain': False, 'nobanner': False}>"
p2756
asbasbasbag69
(g85
g71
NtRp2757
(dp2758
g74
(dp2759
sg83
g2667
sg76
(lp2760
g69
(g90
g71
NtRp2761
(dp2762
g74
(dp2763
g94
g95
ssg83
g2757
sg76
(lp2764
g1558
asbag69
(g90
g71
NtRp2765
(dp2766
g74
(dp2767
g101
g102
ssg83
g2757
sg76
(lp2768
S':'
asbag69
(g90
g71
NtRp2769
(dp2770
g74
(dp2771
sg83
g2757
sg76
(lp2772
g69
(g70
g71
NtRp2773
(dp2774
g74
(dp2775
g82
I4
ssg83
g2769
sg76
(lp2776
S'set([])'
p2777
asbasbasbag69
(g85
g71
NtRp2778
(dp2779
g74
(dp2780
sg83
g2667
sg76
(lp2781
g69
(g90
g71
NtRp2782
(dp2783
g74
(dp2784
g94
g95
ssg83
g2778
sg76
(lp2785
g1580
asbag69
(g90
g71
NtRp2786
(dp2787
g74
(dp2788
g101
g102
ssg83
g2778
sg76
(lp2789
S':'
asbag69
(g90
g71
NtRp2790
(dp2791
g74
(dp2792
sg83
g2778
sg76
(lp2793
g69
(g70
g71
NtRp2794
(dp2795
g74
(dp2796
g82
I4
ssg83
g2790
sg76
(lp2797
g1593
asbasbasbag69
(g85
g71
NtRp2798
(dp2799
g74
(dp2800
sg83
g2667
sg76
(lp2801
g69
(g90
g71
NtRp2802
(dp2803
g74
(dp2804
g94
g95
ssg83
g2798
sg76
(lp2805
g1602
asbag69
(g90
g71
NtRp2806
(dp2807
g74
(dp2808
g101
g102
ssg83
g2798
sg76
(lp2809
S':'
asbag69
(g90
g71
NtRp2810
(dp2811
g74
(dp2812
sg83
g2798
sg76
(lp2813
g69
(g70
g71
NtRp2814
(dp2815
g74
(dp2816
g82
I4
ssg83
g2810
sg76
(lp2817
g1615
asbasbasbag69
(g85
g71
NtRp2818
(dp2819
g74
(dp2820
sg83
g2667
sg76
(lp2821
g69
(g90
g71
NtRp2822
(dp2823
g74
(dp2824
g94
g95
ssg83
g2818
sg76
(lp2825
g1973
asbag69
(g90
g71
NtRp2826
(dp2827
g74
(dp2828
g101
g102
ssg83
g2818
sg76
(lp2829
S':'
asbag69
(g90
g71
NtRp2830
(dp2831
g74
(dp2832
sg83
g2818
sg76
(lp2833
g69
(g70
g71
NtRp2834
(dp2835
g74
(dp2836
g82
I4
ssg83
g2830
sg76
(lp2837
g1593
asbasbasbag69
(g85
g71
NtRp2838
(dp2839
g74
(dp2840
sg83
g2667
sg76
(lp2841
g69
(g90
g71
NtRp2842
(dp2843
g74
(dp2844
g94
g95
ssg83
g2838
sg76
(lp2845
g1994
asbag69
(g90
g71
NtRp2846
(dp2847
g74
(dp2848
g101
g102
ssg83
g2838
sg76
(lp2849
S':'
asbag69
(g90
g71
NtRp2850
(dp2851
g74
(dp2852
sg83
g2838
sg76
(lp2853
g69
(g70
g71
NtRp2854
(dp2855
g74
(dp2856
g82
I4
ssg83
g2850
sg76
(lp2857
g1593
asbasbasbag69
(g85
g71
NtRp2858
(dp2859
g74
(dp2860
sg83
g2667
sg76
(lp2861
g69
(g90
g71
NtRp2862
(dp2863
g74
(dp2864
g94
g95
ssg83
g2858
sg76
(lp2865
g2232
asbag69
(g90
g71
NtRp2866
(dp2867
g74
(dp2868
g101
g102
ssg83
g2858
sg76
(lp2869
S':'
asbag69
(g90
g71
NtRp2870
(dp2871
g74
(dp2872
sg83
g2858
sg76
(lp2873
g69
(g70
g71
NtRp2874
(dp2875
g74
(dp2876
g82
I4
ssg83
g2870
sg76
(lp2877
g2245
asbasbasbag69
(g85
g71
NtRp2878
(dp2879
g74
(dp2880
sg83
g2667
sg76
(lp2881
g69
(g90
g71
NtRp2882
(dp2883
g74
(dp2884
g94
g95
ssg83
g2878
sg76
(lp2885
g2275
asbag69
(g90
g71
NtRp2886
(dp2887
g74
(dp2888
g101
g102
ssg83
g2878
sg76
(lp2889
S':'
asbag69
(g90
g71
NtRp2890
(dp2891
g74
(dp2892
sg83
g2878
sg76
(lp2893
g69
(g70
g71
NtRp2894
(dp2895
g74
(dp2896
g82
I4
ssg83
g2890
sg76
(lp2897
g69
(g78
g71
NtRp2898
(dp2899
g74
(dp2900
g82
I3
ssg83
Nsg76
(lp2901
g69
(g85
g71
NtRp2902
(dp2903
g74
(dp2904
sg83
g2898
sg76
(lp2905
g69
(g90
g71
NtRp2906
(dp2907
g74
(dp2908
sg83
g2902
sg76
(lp2909
g69
(g70
g71
NtRp2910
(dp2911
g74
(dp2912
g82
I3
ssg83
g2906
sg76
(lp2913
S'1'
asbasbasbag69
(g85
g71
NtRp2914
(dp2915
g74
(dp2916
sg83
g2898
sg76
(lp2917
g69
(g90
g71
NtRp2918
(dp2919
g74
(dp2920
sg83
g2914
sg76
(lp2921
g69
(g70
g71
NtRp2922
(dp2923
g74
(dp2924
g82
I3
ssg83
g2918
sg76
(lp2925
S'99'
p2926
asbasbasbag69
(g85
g71
NtRp2927
(dp2928
g74
(dp2929
sg83
g2898
sg76
(lp2930
g69
(g90
g71
NtRp2931
(dp2932
g74
(dp2933
sg83
g2927
sg76
(lp2934
g69
(g70
g71
NtRp2935
(dp2936
g74
(dp2937
g82
I3
ssg83
g2931
sg76
(lp2938
S'4'
asbasbasbag69
(g85
g71
NtRp2939
(dp2940
g74
(dp2941
sg83
g2898
sg76
(lp2942
g69
(g90
g71
NtRp2943
(dp2944
g74
(dp2945
sg83
g2939
sg76
(lp2946
g69
(g70
g71
NtRp2947
(dp2948
g74
(dp2949
g82
I3
ssg83
g2943
sg76
(lp2950
S'datetime.datetime(2011, 12, 14, 14, 46, 14)'
p2951
asbasbasbag69
(g85
g71
NtRp2952
(dp2953
g74
(dp2954
sg83
g2898
sg76
(lp2955
g69
(g90
g71
NtRp2956
(dp2957
g74
(dp2958
sg83
g2952
sg76
(lp2959
g69
(g70
g71
NtRp2960
(dp2961
g74
(dp2962
g82
I3
ssg83
g2956
sg76
(lp2963
g2354
asbasbasbasbasbasbasbasbasbasbasbag69
(g85
g71
NtRp2964
(dp2965
g74
(dp2966
sg83
g79
sg76
(lp2967
g69
(g90
g71
NtRp2968
(dp2969
g74
(dp2970
g94
g95
ssg83
g2964
sg76
(lp2971
S'is_https'
p2972
asbag69
(g90
g71
NtRp2973
(dp2974
g74
(dp2975
g101
g102
ssg83
g2964
sg76
(lp2976
S':'
asbag69
(g90
g71
NtRp2977
(dp2978
g74
(dp2979
sg83
g2964
sg76
(lp2980
g69
(g70
g71
NtRp2981
(dp2982
g74
(dp2983
g82
I5
ssg83
g2977
sg76
(lp2984
g1593
asbasbasbag69
(g85
g71
NtRp2985
(dp2986
g74
(dp2987
sg83
g79
sg76
(lp2988
g69
(g90
g71
NtRp2989
(dp2990
g74
(dp2991
g94
g95
ssg83
g2985
sg76
(lp2992
S'is_local'
p2993
asbag69
(g90
g71
NtRp2994
(dp2995
g74
(dp2996
g101
g102
ssg83
g2985
sg76
(lp2997
S':'
asbag69
(g90
g71
NtRp2998
(dp2999
g74
(dp3000
sg83
g2985
sg76
(lp3001
g69
(g70
g71
NtRp3002
(dp3003
g74
(dp3004
g82
I5
ssg83
g2998
sg76
(lp3005
g112
asbasbasbag69
(g85
g71
NtRp3006
(dp3007
g74
(dp3008
sg83
g79
sg76
(lp3009
g69
(g90
g71
NtRp3010
(dp3011
g74
(dp3012
g94
g95
ssg83
g3006
sg76
(lp3013
S'is_restful'
p3014
asbag69
(g90
g71
NtRp3015
(dp3016
g74
(dp3017
g101
g102
ssg83
g3006
sg76
(lp3018
S':'
asbag69
(g90
g71
NtRp3019
(dp3020
g74
(dp3021
sg83
g3006
sg76
(lp3022
g69
(g70
g71
NtRp3023
(dp3024
g74
(dp3025
g82
I5
ssg83
g3019
sg76
(lp3026
g1593
asbasbasbag69
(g85
g71
NtRp3027
(dp3028
g74
(dp3029
sg83
g79
sg76
(lp3030
g69
(g90
g71
NtRp3031
(dp3032
g74
(dp3033
g94
g95
ssg83
g3027
sg76
(lp3034
S'now'
p3035
asbag69
(g90
g71
NtRp3036
(dp3037
g74
(dp3038
g101
g102
ssg83
g3027
sg76
(lp3039
S':'
asbag69
(g90
g71
NtRp3040
(dp3041
g74
(dp3042
sg83
g3027
sg76
(lp3043
g69
(g70
g71
NtRp3044
(dp3045
g74
(dp3046
g82
I5
ssg83
g3040
sg76
(lp3047
S'datetime.datetime(2012, 1, 31, 21, 42, 38, 219126)'
p3048
asbasbasbag69
(g85
g71
NtRp3049
(dp3050
g74
(dp3051
sg83
g79
sg76
(lp3052
g69
(g90
g71
NtRp3053
(dp3054
g74
(dp3055
g94
g95
ssg83
g3049
sg76
(lp3056
S'post_vars'
p3057
asbag69
(g90
g71
NtRp3058
(dp3059
g74
(dp3060
g101
g102
ssg83
g3049
sg76
(lp3061
S':'
asbag69
(g90
g71
NtRp3062
(dp3063
g74
(dp3064
sg83
g3049
sg76
(lp3065
g69
(g70
g71
NtRp3066
(dp3067
g74
(dp3068
g82
I5
ssg83
g3062
sg76
(lp3069
g69
(g78
g71
NtRp3070
(dp3071
g74
(dp3072
g82
I4
ssg83
Nsg76
(lp3073
g69
(g85
g71
NtRp3074
(dp3075
g74
(dp3076
sg83
g3070
sg76
(lp3077
g69
(g90
g71
NtRp3078
(dp3079
g74
(dp3080
g94
g95
ssg83
g3074
sg76
(lp3081
S'body'
p3082
asbag69
(g90
g71
NtRp3083
(dp3084
g74
(dp3085
g101
g102
ssg83
g3074
sg76
(lp3086
S':'
asbag69
(g90
g71
NtRp3087
(dp3088
g74
(dp3089
sg83
g3074
sg76
(lp3090
g69
(g70
g71
NtRp3091
(dp3092
g74
(dp3093
g82
I4
ssg83
g3087
sg76
(lp3094
S'a witty comment'
p3095
asbasbasbag69
(g85
g71
NtRp3096
(dp3097
g74
(dp3098
sg83
g3070
sg76
(lp3099
g69
(g90
g71
NtRp3100
(dp3101
g74
(dp3102
g94
g95
ssg83
g3096
sg76
(lp3103
S'filter'
p3104
asbag69
(g90
g71
NtRp3105
(dp3106
g74
(dp3107
g101
g102
ssg83
g3096
sg76
(lp3108
S':'
asbag69
(g90
g71
NtRp3109
(dp3110
g74
(dp3111
sg83
g3096
sg76
(lp3112
g69
(g70
g71
NtRp3113
(dp3114
g74
(dp3115
g82
I4
ssg83
g3109
sg76
(lp3116
S''
asbasbasbasbasbasbasbag69
(g85
g71
NtRp3117
(dp3118
g74
(dp3119
sg83
g79
sg76
(lp3120
g69
(g90
g71
NtRp3121
(dp3122
g74
(dp3123
g94
g95
ssg83
g3117
sg76
(lp3124
S'raw_extension'
p3125
asbag69
(g90
g71
NtRp3126
(dp3127
g74
(dp3128
g101
g102
ssg83
g3117
sg76
(lp3129
S':'
asbag69
(g90
g71
NtRp3130
(dp3131
g74
(dp3132
sg83
g3117
sg76
(lp3133
g69
(g70
g71
NtRp3134
(dp3135
g74
(dp3136
g82
I5
ssg83
g3130
sg76
(lp3137
g2576
asbasbasbag69
(g85
g71
NtRp3138
(dp3139
g74
(dp3140
sg83
g79
sg76
(lp3141
g69
(g90
g71
NtRp3142
(dp3143
g74
(dp3144
g94
g95
ssg83
g3138
sg76
(lp3145
S'url'
p3146
asbag69
(g90
g71
NtRp3147
(dp3148
g74
(dp3149
g101
g102
ssg83
g3138
sg76
(lp3150
S':'
asbag69
(g90
g71
NtRp3151
(dp3152
g74
(dp3153
sg83
g3138
sg76
(lp3154
g69
(g70
g71
NtRp3155
(dp3156
g74
(dp3157
g82
I5
ssg83
g3151
sg76
(lp3158
S'/blog/plugin_comments/post.load'
p3159
asbasbasbag69
(g85
g71
NtRp3160
(dp3161
g74
(dp3162
sg83
g79
sg76
(lp3163
g69
(g90
g71
NtRp3164
(dp3165
g74
(dp3166
g94
g95
ssg83
g3160
sg76
(lp3167
S'utcnow'
p3168
asbag69
(g90
g71
NtRp3169
(dp3170
g74
(dp3171
g101
g102
ssg83
g3160
sg76
(lp3172
S':'
asbag69
(g90
g71
NtRp3173
(dp3174
g74
(dp3175
sg83
g3160
sg76
(lp3176
g69
(g70
g71
NtRp3177
(dp3178
g74
(dp3179
g82
I5
ssg83
g3173
sg76
(lp3180
S'datetime.datetime(2012, 2, 1, 2, 42, 38, 219172)'
p3181
asbasbasbag69
(g85
g71
NtRp3182
(dp3183
g74
(dp3184
sg83
g79
sg76
(lp3185
g69
(g90
g71
NtRp3186
(dp3187
g74
(dp3188
g94
g95
ssg83
g3182
sg76
(lp3189
S'uuid'
p3190
asbag69
(g90
g71
NtRp3191
(dp3192
g74
(dp3193
g101
g102
ssg83
g3182
sg76
(lp3194
S':'
asbag69
(g90
g71
NtRp3195
(dp3196
g74
(dp3197
sg83
g3182
sg76
(lp3198
g69
(g70
g71
NtRp3199
(dp3200
g74
(dp3201
g82
I5
ssg83
g3195
sg76
(lp3202
S'blog/127.0.0.1.2012-01-31.21-42-38.5b4d9df4-eab6-4515-bcf5-f0e4c0662969'
p3203
asbasbasbag69
(g85
g71
NtRp3204
(dp3205
g74
(dp3206
sg83
g79
sg76
(lp3207
g69
(g90
g71
NtRp3208
(dp3209
g74
(dp3210
g94
g95
ssg83
g3204
sg76
(lp3211
S'vars'
p3212
asbag69
(g90
g71
NtRp3213
(dp3214
g74
(dp3215
g101
g102
ssg83
g3204
sg76
(lp3216
S':'
asbag69
(g90
g71
NtRp3217
(dp3218
g74
(dp3219
sg83
g3204
sg76
(lp3220
g69
(g70
g71
NtRp3221
(dp3222
g74
(dp3223
g82
I5
ssg83
g3217
sg76
(lp3224
g69
(g78
g71
NtRp3225
(dp3226
g74
(dp3227
g82
I4
ssg83
Nsg76
(lp3228
g69
(g85
g71
NtRp3229
(dp3230
g74
(dp3231
sg83
g3225
sg76
(lp3232
g69
(g90
g71
NtRp3233
(dp3234
g74
(dp3235
g94
g95
ssg83
g3229
sg76
(lp3236
g3082
asbag69
(g90
g71
NtRp3237
(dp3238
g74
(dp3239
g101
g102
ssg83
g3229
sg76
(lp3240
S':'
asbag69
(g90
g71
NtRp3241
(dp3242
g74
(dp3243
sg83
g3229
sg76
(lp3244
g69
(g70
g71
NtRp3245
(dp3246
g74
(dp3247
g82
I4
ssg83
g3241
sg76
(lp3248
g3095
asbasbasbag69
(g85
g71
NtRp3249
(dp3250
g74
(dp3251
sg83
g3225
sg76
(lp3252
g69
(g90
g71
NtRp3253
(dp3254
g74
(dp3255
g94
g95
ssg83
g3249
sg76
(lp3256
g3104
asbag69
(g90
g71
NtRp3257
(dp3258
g74
(dp3259
g101
g102
ssg83
g3249
sg76
(lp3260
S':'
asbag69
(g90
g71
NtRp3261
(dp3262
g74
(dp3263
sg83
g3249
sg76
(lp3264
g69
(g70
g71
NtRp3265
(dp3266
g74
(dp3267
g82
I4
ssg83
g3261
sg76
(lp3268
S''
asbasbasbasbasbasbasbag69
(g85
g71
NtRp3269
(dp3270
g74
(dp3271
sg83
g79
sg76
(lp3272
g69
(g90
g71
NtRp3273
(dp3274
g74
(dp3275
g94
g95
ssg83
g3269
sg76
(lp3276
S'wsgi'
p3277
asbag69
(g90
g71
NtRp3278
(dp3279
g74
(dp3280
g101
g102
ssg83
g3269
sg76
(lp3281
S':'
asbag69
(g90
g71
NtRp3282
(dp3283
g74
(dp3284
sg83
g3269
sg76
(lp3285
g69
(g70
g71
NtRp3286
(dp3287
g74
(dp3288
g82
I5
ssg83
g3282
sg76
(lp3289
g69
(g78
g71
NtRp3290
(dp3291
g74
(dp3292
g82
I4
ssg83
Nsg76
(lp3293
g69
(g85
g71
NtRp3294
(dp3295
g74
(dp3296
sg83
g3290
sg76
(lp3297
g69
(g90
g71
NtRp3298
(dp3299
g74
(dp3300
g94
g95
ssg83
g3294
sg76
(lp3301
S'environ'
p3302
asbag69
(g90
g71
NtRp3303
(dp3304
g74
(dp3305
g101
g102
ssg83
g3294
sg76
(lp3306
S':'
asbag69
(g90
g71
NtRp3307
(dp3308
g74
(dp3309
sg83
g3294
sg76
(lp3310
g69
(g70
g71
NtRp3311
(dp3312
g74
(dp3313
g82
I4
ssg83
g3307
sg76
(lp3314
g69
(g78
g71
NtRp3315
(dp3316
g74
(dp3317
g82
I3
ssg83
Nsg76
(lp3318
g69
(g85
g71
NtRp3319
(dp3320
g74
(dp3321
sg83
g3315
sg76
(lp3322
g69
(g90
g71
NtRp3323
(dp3324
g74
(dp3325
g94
g95
ssg83
g3319
sg76
(lp3326
S'CONTENT_LENGTH'
p3327
asbag69
(g90
g71
NtRp3328
(dp3329
g74
(dp3330
g101
g102
ssg83
g3319
sg76
(lp3331
S':'
asbag69
(g90
g71
NtRp3332
(dp3333
g74
(dp3334
sg83
g3319
sg76
(lp3335
g69
(g70
g71
NtRp3336
(dp3337
g74
(dp3338
g82
I3
ssg83
g3332
sg76
(lp3339
g1527
asbasbasbag69
(g85
g71
NtRp3340
(dp3341
g74
(dp3342
sg83
g3315
sg76
(lp3343
g69
(g90
g71
NtRp3344
(dp3345
g74
(dp3346
g94
g95
ssg83
g3340
sg76
(lp3347
S'CONTENT_TYPE'
p3348
asbag69
(g90
g71
NtRp3349
(dp3350
g74
(dp3351
g101
g102
ssg83
g3340
sg76
(lp3352
S':'
asbag69
(g90
g71
NtRp3353
(dp3354
g74
(dp3355
sg83
g3340
sg76
(lp3356
g69
(g70
g71
NtRp3357
(dp3358
g74
(dp3359
g82
I3
ssg83
g3353
sg76
(lp3360
g1549
asbasbasbag69
(g85
g71
NtRp3361
(dp3362
g74
(dp3363
sg83
g3315
sg76
(lp3364
g69
(g90
g71
NtRp3365
(dp3366
g74
(dp3367
g94
g95
ssg83
g3361
sg76
(lp3368
S'HTTP_ACCEPT'
p3369
asbag69
(g90
g71
NtRp3370
(dp3371
g74
(dp3372
g101
g102
ssg83
g3361
sg76
(lp3373
S':'
asbag69
(g90
g71
NtRp3374
(dp3375
g74
(dp3376
sg83
g3361
sg76
(lp3377
g69
(g70
g71
NtRp3378
(dp3379
g74
(dp3380
g82
I3
ssg83
g3374
sg76
(lp3381
g1637
asbasbasbag69
(g85
g71
NtRp3382
(dp3383
g74
(dp3384
sg83
g3315
sg76
(lp3385
g69
(g90
g71
NtRp3386
(dp3387
g74
(dp3388
g94
g95
ssg83
g3382
sg76
(lp3389
S'HTTP_ACCEPT_CHARSET'
p3390
asbag69
(g90
g71
NtRp3391
(dp3392
g74
(dp3393
g101
g102
ssg83
g3382
sg76
(lp3394
S':'
asbag69
(g90
g71
NtRp3395
(dp3396
g74
(dp3397
sg83
g3382
sg76
(lp3398
g69
(g70
g71
NtRp3399
(dp3400
g74
(dp3401
g82
I3
ssg83
g3395
sg76
(lp3402
g1659
asbasbasbag69
(g85
g71
NtRp3403
(dp3404
g74
(dp3405
sg83
g3315
sg76
(lp3406
g69
(g90
g71
NtRp3407
(dp3408
g74
(dp3409
g94
g95
ssg83
g3403
sg76
(lp3410
S'HTTP_ACCEPT_ENCODING'
p3411
asbag69
(g90
g71
NtRp3412
(dp3413
g74
(dp3414
g101
g102
ssg83
g3403
sg76
(lp3415
S':'
asbag69
(g90
g71
NtRp3416
(dp3417
g74
(dp3418
sg83
g3403
sg76
(lp3419
g69
(g70
g71
NtRp3420
(dp3421
g74
(dp3422
g82
I3
ssg83
g3416
sg76
(lp3423
g1681
asbasbasbag69
(g85
g71
NtRp3424
(dp3425
g74
(dp3426
sg83
g3315
sg76
(lp3427
g69
(g90
g71
NtRp3428
(dp3429
g74
(dp3430
g94
g95
ssg83
g3424
sg76
(lp3431
S'HTTP_ACCEPT_LANGUAGE'
p3432
asbag69
(g90
g71
NtRp3433
(dp3434
g74
(dp3435
g101
g102
ssg83
g3424
sg76
(lp3436
S':'
asbag69
(g90
g71
NtRp3437
(dp3438
g74
(dp3439
sg83
g3424
sg76
(lp3440
g69
(g70
g71
NtRp3441
(dp3442
g74
(dp3443
g82
I3
ssg83
g3437
sg76
(lp3444
g1703
asbasbasbag69
(g85
g71
NtRp3445
(dp3446
g74
(dp3447
sg83
g3315
sg76
(lp3448
g69
(g90
g71
NtRp3449
(dp3450
g74
(dp3451
g94
g95
ssg83
g3445
sg76
(lp3452
S'HTTP_CACHE_CONTROL'
p3453
asbag69
(g90
g71
NtRp3454
(dp3455
g74
(dp3456
g101
g102
ssg83
g3445
sg76
(lp3457
S':'
asbag69
(g90
g71
NtRp3458
(dp3459
g74
(dp3460
sg83
g3445
sg76
(lp3461
g69
(g70
g71
NtRp3462
(dp3463
g74
(dp3464
g82
I3
ssg83
g3458
sg76
(lp3465
g1725
asbasbasbag69
(g85
g71
NtRp3466
(dp3467
g74
(dp3468
sg83
g3315
sg76
(lp3469
g69
(g90
g71
NtRp3470
(dp3471
g74
(dp3472
g94
g95
ssg83
g3466
sg76
(lp3473
S'HTTP_CONNECTION'
p3474
asbag69
(g90
g71
NtRp3475
(dp3476
g74
(dp3477
g101
g102
ssg83
g3466
sg76
(lp3478
S':'
asbag69
(g90
g71
NtRp3479
(dp3480
g74
(dp3481
sg83
g3466
sg76
(lp3482
g69
(g70
g71
NtRp3483
(dp3484
g74
(dp3485
g82
I3
ssg83
g3479
sg76
(lp3486
g1747
asbasbasbag69
(g85
g71
NtRp3487
(dp3488
g74
(dp3489
sg83
g3315
sg76
(lp3490
g69
(g90
g71
NtRp3491
(dp3492
g74
(dp3493
g94
g95
ssg83
g3487
sg76
(lp3494
S'HTTP_CONTENT_LENGTH'
p3495
asbag69
(g90
g71
NtRp3496
(dp3497
g74
(dp3498
g101
g102
ssg83
g3487
sg76
(lp3499
S':'
asbag69
(g90
g71
NtRp3500
(dp3501
g74
(dp3502
sg83
g3487
sg76
(lp3503
g69
(g70
g71
NtRp3504
(dp3505
g74
(dp3506
g82
I3
ssg83
g3500
sg76
(lp3507
g1527
asbasbasbag69
(g85
g71
NtRp3508
(dp3509
g74
(dp3510
sg83
g3315
sg76
(lp3511
g69
(g90
g71
NtRp3512
(dp3513
g74
(dp3514
g94
g95
ssg83
g3508
sg76
(lp3515
S'HTTP_CONTENT_TYPE'
p3516
asbag69
(g90
g71
NtRp3517
(dp3518
g74
(dp3519
g101
g102
ssg83
g3508
sg76
(lp3520
S':'
asbag69
(g90
g71
NtRp3521
(dp3522
g74
(dp3523
sg83
g3508
sg76
(lp3524
g69
(g70
g71
NtRp3525
(dp3526
g74
(dp3527
g82
I3
ssg83
g3521
sg76
(lp3528
g1549
asbasbasbag69
(g85
g71
NtRp3529
(dp3530
g74
(dp3531
sg83
g3315
sg76
(lp3532
g69
(g90
g71
NtRp3533
(dp3534
g74
(dp3535
g94
g95
ssg83
g3529
sg76
(lp3536
S'HTTP_COOKIE'
p3537
asbag69
(g90
g71
NtRp3538
(dp3539
g74
(dp3540
g101
g102
ssg83
g3529
sg76
(lp3541
S':'
asbag69
(g90
g71
NtRp3542
(dp3543
g74
(dp3544
sg83
g3529
sg76
(lp3545
g69
(g70
g71
NtRp3546
(dp3547
g74
(dp3548
g82
I3
ssg83
g3542
sg76
(lp3549
g1811
asbasbasbag69
(g85
g71
NtRp3550
(dp3551
g74
(dp3552
sg83
g3315
sg76
(lp3553
g69
(g90
g71
NtRp3554
(dp3555
g74
(dp3556
g94
g95
ssg83
g3550
sg76
(lp3557
S'HTTP_HOST'
p3558
asbag69
(g90
g71
NtRp3559
(dp3560
g74
(dp3561
g101
g102
ssg83
g3550
sg76
(lp3562
S':'
asbag69
(g90
g71
NtRp3563
(dp3564
g74
(dp3565
sg83
g3550
sg76
(lp3566
g69
(g70
g71
NtRp3567
(dp3568
g74
(dp3569
g82
I3
ssg83
g3563
sg76
(lp3570
g1833
asbasbasbag69
(g85
g71
NtRp3571
(dp3572
g74
(dp3573
sg83
g3315
sg76
(lp3574
g69
(g90
g71
NtRp3575
(dp3576
g74
(dp3577
g94
g95
ssg83
g3571
sg76
(lp3578
S'HTTP_PRAGMA'
p3579
asbag69
(g90
g71
NtRp3580
(dp3581
g74
(dp3582
g101
g102
ssg83
g3571
sg76
(lp3583
S':'
asbag69
(g90
g71
NtRp3584
(dp3585
g74
(dp3586
sg83
g3571
sg76
(lp3587
g69
(g70
g71
NtRp3588
(dp3589
g74
(dp3590
g82
I3
ssg83
g3584
sg76
(lp3591
g1855
asbasbasbag69
(g85
g71
NtRp3592
(dp3593
g74
(dp3594
sg83
g3315
sg76
(lp3595
g69
(g90
g71
NtRp3596
(dp3597
g74
(dp3598
g94
g95
ssg83
g3592
sg76
(lp3599
S'HTTP_REFERER'
p3600
asbag69
(g90
g71
NtRp3601
(dp3602
g74
(dp3603
g101
g102
ssg83
g3592
sg76
(lp3604
S':'
asbag69
(g90
g71
NtRp3605
(dp3606
g74
(dp3607
sg83
g3592
sg76
(lp3608
g69
(g70
g71
NtRp3609
(dp3610
g74
(dp3611
g82
I3
ssg83
g3605
sg76
(lp3612
g1877
asbasbasbag69
(g85
g71
NtRp3613
(dp3614
g74
(dp3615
sg83
g3315
sg76
(lp3616
g69
(g90
g71
NtRp3617
(dp3618
g74
(dp3619
g94
g95
ssg83
g3613
sg76
(lp3620
S'HTTP_USER_AGENT'
p3621
asbag69
(g90
g71
NtRp3622
(dp3623
g74
(dp3624
g101
g102
ssg83
g3613
sg76
(lp3625
S':'
asbag69
(g90
g71
NtRp3626
(dp3627
g74
(dp3628
sg83
g3613
sg76
(lp3629
g69
(g70
g71
NtRp3630
(dp3631
g74
(dp3632
g82
I3
ssg83
g3626
sg76
(lp3633
g1899
asbasbasbag69
(g85
g71
NtRp3634
(dp3635
g74
(dp3636
sg83
g3315
sg76
(lp3637
g69
(g90
g71
NtRp3638
(dp3639
g74
(dp3640
g94
g95
ssg83
g3634
sg76
(lp3641
S'HTTP_WEB2PY_COMPONENT_ELEMENT'
p3642
asbag69
(g90
g71
NtRp3643
(dp3644
g74
(dp3645
g101
g102
ssg83
g3634
sg76
(lp3646
S':'
asbag69
(g90
g71
NtRp3647
(dp3648
g74
(dp3649
sg83
g3634
sg76
(lp3650
g69
(g70
g71
NtRp3651
(dp3652
g74
(dp3653
g82
I3
ssg83
g3647
sg76
(lp3654
g202
asbasbasbag69
(g85
g71
NtRp3655
(dp3656
g74
(dp3657
sg83
g3315
sg76
(lp3658
g69
(g90
g71
NtRp3659
(dp3660
g74
(dp3661
g94
g95
ssg83
g3655
sg76
(lp3662
S'HTTP_WEB2PY_COMPONENT_LOCATION'
p3663
asbag69
(g90
g71
NtRp3664
(dp3665
g74
(dp3666
g101
g102
ssg83
g3655
sg76
(lp3667
S':'
asbag69
(g90
g71
NtRp3668
(dp3669
g74
(dp3670
sg83
g3655
sg76
(lp3671
g69
(g70
g71
NtRp3672
(dp3673
g74
(dp3674
g82
I3
ssg83
g3668
sg76
(lp3675
g1942
asbasbasbag69
(g85
g71
NtRp3676
(dp3677
g74
(dp3678
sg83
g3315
sg76
(lp3679
g69
(g90
g71
NtRp3680
(dp3681
g74
(dp3682
g94
g95
ssg83
g3676
sg76
(lp3683
S'HTTP_X_REQUESTED_WITH'
p3684
asbag69
(g90
g71
NtRp3685
(dp3686
g74
(dp3687
g101
g102
ssg83
g3676
sg76
(lp3688
S':'
asbag69
(g90
g71
NtRp3689
(dp3690
g74
(dp3691
sg83
g3676
sg76
(lp3692
g69
(g70
g71
NtRp3693
(dp3694
g74
(dp3695
g82
I3
ssg83
g3689
sg76
(lp3696
g1964
asbasbasbag69
(g85
g71
NtRp3697
(dp3698
g74
(dp3699
sg83
g3315
sg76
(lp3700
g69
(g90
g71
NtRp3701
(dp3702
g74
(dp3703
g94
g95
ssg83
g3697
sg76
(lp3704
S'PATH_INFO'
p3705
asbag69
(g90
g71
NtRp3706
(dp3707
g74
(dp3708
g101
g102
ssg83
g3697
sg76
(lp3709
S':'
asbag69
(g90
g71
NtRp3710
(dp3711
g74
(dp3712
sg83
g3697
sg76
(lp3713
g69
(g70
g71
NtRp3714
(dp3715
g74
(dp3716
g82
I3
ssg83
g3710
sg76
(lp3717
g2028
asbasbasbag69
(g85
g71
NtRp3718
(dp3719
g74
(dp3720
sg83
g3315
sg76
(lp3721
g69
(g90
g71
NtRp3722
(dp3723
g74
(dp3724
g94
g95
ssg83
g3718
sg76
(lp3725
S'QUERY_STRING'
p3726
asbag69
(g90
g71
NtRp3727
(dp3728
g74
(dp3729
g101
g102
ssg83
g3718
sg76
(lp3730
S':'
asbag69
(g90
g71
NtRp3731
(dp3732
g74
(dp3733
sg83
g3718
sg76
(lp3734
g69
(g70
g71
NtRp3735
(dp3736
g74
(dp3737
g82
I3
ssg83
g3731
sg76
(lp3738
S''
asbasbasbag69
(g85
g71
NtRp3739
(dp3740
g74
(dp3741
sg83
g3315
sg76
(lp3742
g69
(g90
g71
NtRp3743
(dp3744
g74
(dp3745
g94
g95
ssg83
g3739
sg76
(lp3746
S'REMOTE_ADDR'
p3747
asbag69
(g90
g71
NtRp3748
(dp3749
g74
(dp3750
g101
g102
ssg83
g3739
sg76
(lp3751
S':'
asbag69
(g90
g71
NtRp3752
(dp3753
g74
(dp3754
sg83
g3739
sg76
(lp3755
g69
(g70
g71
NtRp3756
(dp3757
g74
(dp3758
g82
I3
ssg83
g3752
sg76
(lp3759
g224
asbasbasbag69
(g85
g71
NtRp3760
(dp3761
g74
(dp3762
sg83
g3315
sg76
(lp3763
g69
(g90
g71
NtRp3764
(dp3765
g74
(dp3766
g94
g95
ssg83
g3760
sg76
(lp3767
S'REMOTE_PORT'
p3768
asbag69
(g90
g71
NtRp3769
(dp3770
g74
(dp3771
g101
g102
ssg83
g3760
sg76
(lp3772
S':'
asbag69
(g90
g71
NtRp3773
(dp3774
g74
(dp3775
sg83
g3760
sg76
(lp3776
g69
(g70
g71
NtRp3777
(dp3778
g74
(dp3779
g82
I3
ssg83
g3773
sg76
(lp3780
g2092
asbasbasbag69
(g85
g71
NtRp3781
(dp3782
g74
(dp3783
sg83
g3315
sg76
(lp3784
g69
(g90
g71
NtRp3785
(dp3786
g74
(dp3787
g94
g95
ssg83
g3781
sg76
(lp3788
S'REQUEST_METHOD'
p3789
asbag69
(g90
g71
NtRp3790
(dp3791
g74
(dp3792
g101
g102
ssg83
g3781
sg76
(lp3793
S':'
asbag69
(g90
g71
NtRp3794
(dp3795
g74
(dp3796
sg83
g3781
sg76
(lp3797
g69
(g70
g71
NtRp3798
(dp3799
g74
(dp3800
g82
I3
ssg83
g3794
sg76
(lp3801
g2114
asbasbasbag69
(g85
g71
NtRp3802
(dp3803
g74
(dp3804
sg83
g3315
sg76
(lp3805
g69
(g90
g71
NtRp3806
(dp3807
g74
(dp3808
g94
g95
ssg83
g3802
sg76
(lp3809
S'SCRIPT_NAME'
p3810
asbag69
(g90
g71
NtRp3811
(dp3812
g74
(dp3813
g101
g102
ssg83
g3802
sg76
(lp3814
S':'
asbag69
(g90
g71
NtRp3815
(dp3816
g74
(dp3817
sg83
g3802
sg76
(lp3818
g69
(g70
g71
NtRp3819
(dp3820
g74
(dp3821
g82
I3
ssg83
g3815
sg76
(lp3822
S''
asbasbasbag69
(g85
g71
NtRp3823
(dp3824
g74
(dp3825
sg83
g3315
sg76
(lp3826
g69
(g90
g71
NtRp3827
(dp3828
g74
(dp3829
g94
g95
ssg83
g3823
sg76
(lp3830
S'SERVER_NAME'
p3831
asbag69
(g90
g71
NtRp3832
(dp3833
g74
(dp3834
g101
g102
ssg83
g3823
sg76
(lp3835
S':'
asbag69
(g90
g71
NtRp3836
(dp3837
g74
(dp3838
sg83
g3823
sg76
(lp3839
g69
(g70
g71
NtRp3840
(dp3841
g74
(dp3842
g82
I3
ssg83
g3836
sg76
(lp3843
g2157
asbasbasbag69
(g85
g71
NtRp3844
(dp3845
g74
(dp3846
sg83
g3315
sg76
(lp3847
g69
(g90
g71
NtRp3848
(dp3849
g74
(dp3850
g94
g95
ssg83
g3844
sg76
(lp3851
S'SERVER_PORT'
p3852
asbag69
(g90
g71
NtRp3853
(dp3854
g74
(dp3855
g101
g102
ssg83
g3844
sg76
(lp3856
S':'
asbag69
(g90
g71
NtRp3857
(dp3858
g74
(dp3859
sg83
g3844
sg76
(lp3860
g69
(g70
g71
NtRp3861
(dp3862
g74
(dp3863
g82
I3
ssg83
g3857
sg76
(lp3864
g2179
asbasbasbag69
(g85
g71
NtRp3865
(dp3866
g74
(dp3867
sg83
g3315
sg76
(lp3868
g69
(g90
g71
NtRp3869
(dp3870
g74
(dp3871
g94
g95
ssg83
g3865
sg76
(lp3872
S'SERVER_PROTOCOL'
p3873
asbag69
(g90
g71
NtRp3874
(dp3875
g74
(dp3876
g101
g102
ssg83
g3865
sg76
(lp3877
S':'
asbag69
(g90
g71
NtRp3878
(dp3879
g74
(dp3880
sg83
g3865
sg76
(lp3881
g69
(g70
g71
NtRp3882
(dp3883
g74
(dp3884
g82
I3
ssg83
g3878
sg76
(lp3885
g2201
asbasbasbag69
(g85
g71
NtRp3886
(dp3887
g74
(dp3888
sg83
g3315
sg76
(lp3889
g69
(g90
g71
NtRp3890
(dp3891
g74
(dp3892
g94
g95
ssg83
g3886
sg76
(lp3893
S'SERVER_SOFTWARE'
p3894
asbag69
(g90
g71
NtRp3895
(dp3896
g74
(dp3897
g101
g102
ssg83
g3886
sg76
(lp3898
S':'
asbag69
(g90
g71
NtRp3899
(dp3900
g74
(dp3901
sg83
g3886
sg76
(lp3902
g69
(g70
g71
NtRp3903
(dp3904
g74
(dp3905
g82
I3
ssg83
g3899
sg76
(lp3906
g2223
asbasbasbag69
(g85
g71
NtRp3907
(dp3908
g74
(dp3909
sg83
g3315
sg76
(lp3910
g69
(g90
g71
NtRp3911
(dp3912
g74
(dp3913
g94
g95
ssg83
g3907
sg76
(lp3914
S'wsgi.errors'
p3915
asbag69
(g90
g71
NtRp3916
(dp3917
g74
(dp3918
g101
g102
ssg83
g3907
sg76
(lp3919
S':'
asbag69
(g90
g71
NtRp3920
(dp3921
g74
(dp3922
sg83
g3907
sg76
(lp3923
g69
(g70
g71
NtRp3924
(dp3925
g74
(dp3926
g82
I3
ssg83
g3920
sg76
(lp3927
S"<open file '<stderr>', mode 'w' at 0x7f67b8508270>"
p3928
asbasbasbag69
(g85
g71
NtRp3929
(dp3930
g74
(dp3931
sg83
g3315
sg76
(lp3932
g69
(g90
g71
NtRp3933
(dp3934
g74
(dp3935
g94
g95
ssg83
g3929
sg76
(lp3936
S'wsgi.file_wrapper'
p3937
asbag69
(g90
g71
NtRp3938
(dp3939
g74
(dp3940
g101
g102
ssg83
g3929
sg76
(lp3941
S':'
asbag69
(g90
g71
NtRp3942
(dp3943
g74
(dp3944
sg83
g3929
sg76
(lp3945
g69
(g70
g71
NtRp3946
(dp3947
g74
(dp3948
g82
I3
ssg83
g3942
sg76
(lp3949
S'<class wsgiref.util.FileWrapper at 0x121ec80>'
p3950
asbasbasbag69
(g85
g71
NtRp3951
(dp3952
g74
(dp3953
sg83
g3315
sg76
(lp3954
g69
(g90
g71
NtRp3955
(dp3956
g74
(dp3957
g94
g95
ssg83
g3951
sg76
(lp3958
S'wsgi.input'
p3959
asbag69
(g90
g71
NtRp3960
(dp3961
g74
(dp3962
g101
g102
ssg83
g3951
sg76
(lp3963
S':'
asbag69
(g90
g71
NtRp3964
(dp3965
g74
(dp3966
sg83
g3951
sg76
(lp3967
g69
(g70
g71
NtRp3968
(dp3969
g74
(dp3970
g82
I3
ssg83
g3964
sg76
(lp3971
S"<open file '<fdopen>', mode 'w+b' at 0x19e8f60>"
p3972
asbasbasbag69
(g85
g71
NtRp3973
(dp3974
g74
(dp3975
sg83
g3315
sg76
(lp3976
g69
(g90
g71
NtRp3977
(dp3978
g74
(dp3979
g94
g95
ssg83
g3973
sg76
(lp3980
S'wsgi.multiprocess'
p3981
asbag69
(g90
g71
NtRp3982
(dp3983
g74
(dp3984
g101
g102
ssg83
g3973
sg76
(lp3985
S':'
asbag69
(g90
g71
NtRp3986
(dp3987
g74
(dp3988
sg83
g3973
sg76
(lp3989
g69
(g70
g71
NtRp3990
(dp3991
g74
(dp3992
g82
I3
ssg83
g3986
sg76
(lp3993
g1593
asbasbasbag69
(g85
g71
NtRp3994
(dp3995
g74
(dp3996
sg83
g3315
sg76
(lp3997
g69
(g90
g71
NtRp3998
(dp3999
g74
(dp4000
g94
g95
ssg83
g3994
sg76
(lp4001
S'wsgi.multithread'
p4002
asbag69
(g90
g71
NtRp4003
(dp4004
g74
(dp4005
g101
g102
ssg83
g3994
sg76
(lp4006
S':'
asbag69
(g90
g71
NtRp4007
(dp4008
g74
(dp4009
sg83
g3994
sg76
(lp4010
g69
(g70
g71
NtRp4011
(dp4012
g74
(dp4013
g82
I3
ssg83
g4007
sg76
(lp4014
g112
asbasbasbag69
(g85
g71
NtRp4015
(dp4016
g74
(dp4017
sg83
g3315
sg76
(lp4018
g69
(g90
g71
NtRp4019
(dp4020
g74
(dp4021
g94
g95
ssg83
g4015
sg76
(lp4022
S'wsgi.run_once'
p4023
asbag69
(g90
g71
NtRp4024
(dp4025
g74
(dp4026
g101
g102
ssg83
g4015
sg76
(lp4027
S':'
asbag69
(g90
g71
NtRp4028
(dp4029
g74
(dp4030
sg83
g4015
sg76
(lp4031
g69
(g70
g71
NtRp4032
(dp4033
g74
(dp4034
g82
I3
ssg83
g4028
sg76
(lp4035
g1593
asbasbasbag69
(g85
g71
NtRp4036
(dp4037
g74
(dp4038
sg83
g3315
sg76
(lp4039
g69
(g90
g71
NtRp4040
(dp4041
g74
(dp4042
g94
g95
ssg83
g4036
sg76
(lp4043
S'wsgi.url_scheme'
p4044
asbag69
(g90
g71
NtRp4045
(dp4046
g74
(dp4047
g101
g102
ssg83
g4036
sg76
(lp4048
S':'
asbag69
(g90
g71
NtRp4049
(dp4050
g74
(dp4051
sg83
g4036
sg76
(lp4052
g69
(g70
g71
NtRp4053
(dp4054
g74
(dp4055
g82
I3
ssg83
g4049
sg76
(lp4056
g2505
asbasbasbag69
(g85
g71
NtRp4057
(dp4058
g74
(dp4059
sg83
g3315
sg76
(lp4060
g69
(g90
g71
NtRp4061
(dp4062
g74
(dp4063
g94
g95
ssg83
g4057
sg76
(lp4064
S'wsgi.version'
p4065
asbag69
(g90
g71
NtRp4066
(dp4067
g74
(dp4068
g101
g102
ssg83
g4057
sg76
(lp4069
S':'
asbag69
(g90
g71
NtRp4070
(dp4071
g74
(dp4072
sg83
g4057
sg76
(lp4073
g69
(g70
g71
NtRp4074
(dp4075
g74
(dp4076
g82
I3
ssg83
g4070
sg76
(lp4077
S'1'
asbasbasbasbasbasbasbasbasbasbasbasbasbsS'frames'
p4078
(lp4079
(dp4080
S'file'
p4081
S'/home/ian/web2py/gluon/restricted.py'
p4082
sS'dump'
p4083
(dp4084
S'environment'
p4085
S"{'A': <class 'gluon.html.A'>, 'Auth': <class 'gluon.tools.Auth'>, 'B': <class 'gluon.html.B'>, 'BEAUTIFY': <class 'gluon.html.BEAUTIFY'>, 'BODY': <class 'gluon.html.BODY'>, 'BR': <class 'gluon.html.BR'>, 'BUTTON': <class 'gluon.html.BUTTON'>, 'CAT': <class 'gluon.html.CAT'>, 'CENTER': <class 'gluon.html.CENTER'>, 'CLEANUP': <class 'gluon.validators.CLEANUP'>, ...}"
p4086
sS'ccode'
p4087
S'<code object <module> at 0x1ce3e30, file "/home/...ons/blog/controllers/plugin_comments.py", line 1>'
p4088
ssS'lnum'
p4089
I204
sS'lines'
p4090
(dp4091
I199
S'    try:'
p4092
sI200
S'        if type(code) == types.CodeType:'
p4093
sI201
S'            ccode = code'
p4094
sI202
S'        else:'
p4095
sI203
S'            ccode = compile2(code,layer)'
p4096
sI204
S'        exec ccode in environment'
p4097
sI205
S'    except HTTP:'
p4098
sI206
S'        raise'
p4099
sI207
S'    except RestrictedError:'
p4100
sI208
S'        # do not encapsulate (obfuscate) the original RestrictedError'
p4101
ssS'call'
p4102
S"(code='# coding: utf8\\nif 0:\\n    from gluon import curre...comments)\\n\\nresponse._vars=response._caller(post)\\n', environment={'A': <class 'gluon.html.A'>, 'Auth': <class 'gluon.tools.Auth'>, 'B': <class 'gluon.html.B'>, 'BEAUTIFY': <class 'gluon.html.BEAUTIFY'>, 'BODY': <class 'gluon.html.BODY'>, 'BR': <class 'gluon.html.BR'>, 'BUTTON': <class 'gluon.html.BUTTON'>, 'CAT': <class 'gluon.html.CAT'>, 'CENTER': <class 'gluon.html.CENTER'>, 'CLEANUP': <class 'gluon.validators.CLEANUP'>, ...}, layer='/home/ian/web2py/applications/blog/controllers/plugin_comments.py')"
p4103
sS'func'
p4104
S'restricted'
p4105
sa(dp4106
g4081
S'/home/ian/web2py/applications/blog/controllers/plugin_comments.py'
p4107
sg4083
(dp4108
sg4089
I33
sg4090
(dp4109
I22
S'    # process form'
p4110
sI23
S'    if form.process(onvalidation = checkfilter).accepted:'
p4111
sI24
S"        response.flash = 'Thanks for your thoughts!'"
p4112
sI25
S'    elif form.errors:'
p4113
sI26
S"        response.flash = 'Sorry, something went wrong when I tried to add your comment.'"
p4114
sI27
S'    else:'
p4115
sI28
S'        pass'
p4116
sI29
S''
sI30
S'    comments = db(comment).select()'
p4117
sI31
S'    return dict(form = form, comments = comments)'
p4118
ssg4102
S'()'
p4119
sg4104
S'<module>'
p4120
sa(dp4121
g4081
S'/home/ian/web2py/gluon/globals.py'
p4122
sg4083
(dp4123
S'self'
p4124
S'undefined'
p4125
sS'f'
S'<function post>'
p4126
ssg4089
I172
sg4090
(dp4127
I167
S'        self.meta = Storage()      # used by web2py_ajax.html'
p4128
sI168
S'        self.menu = []             # used by the default view layout'
p4129
sI169
S'        self.files = []            # used by web2py_ajax.html'
p4130
sI170
S'        self.generic_patterns = [] # patterns to allow generic views'
p4131
sI171
S'        self._vars = None'
p4132
sI172
S'        self._caller = lambda f: f()'
p4133
sI173
S'        self._view_environment = None'
p4134
sI174
S'        self._custom_commit = None'
p4135
sI175
S'        self._custom_rollback = None'
p4136
sI176
S''
ssg4102
S'(f=<function post>)'
p4137
sg4104
S'<lambda>'
p4138
sa(dp4139
g4081
S'/home/ian/web2py/applications/blog/controllers/plugin_comments.py'
p4140
sg4083
(dp4141
S'global checkfilter'
p4142
S'<function checkfilter>'
p4143
sS'form.process'
p4144
S'<bound method SQLFORM.process of <gluon.sqlhtml.SQLFORM object>>'
p4145
sS').accepted'
p4146
g4125
sS'onvalidation'
p4147
g4125
sS'form'
p4148
S'<gluon.sqlhtml.SQLFORM object>'
p4149
ssg4089
I23
sg4090
(dp4150
I18
S'    comment = db.plugin_comments_comment'
p4151
sI19
S"    form = SQLFORM(comment, submit_button = 'add comment', separator = '', formstyle = 'ul', hidden = dict(filter = ''))"
p4152
sI20
S"    # adds the hidden field 'filter' to the processed form values (form.vars)"
p4153
sI21
S'    form.vars.filter = request.vars.filter'
p4154
sI22
S'    # process form'
p4155
sI23
S'    if form.process(onvalidation = checkfilter).accepted:'
p4156
sI24
S"        response.flash = 'Thanks for your thoughts!'"
p4157
sI25
S'    elif form.errors:'
p4158
sI26
S"        response.flash = 'Sorry, something went wrong when I tried to add your comment.'"
p4159
sI27
S'    else:'
p4160
ssg4102
S'()'
p4161
sg4104
S'post'
p4162
sa(dp4163
g4081
S'/home/ian/web2py/gluon/html.py'
p4164
sg4083
(dp4165
S'self'
p4166
S'<gluon.sqlhtml.SQLFORM object>'
p4167
sS'self.validate'
p4168
S'<bound method SQLFORM.validate of <gluon.sqlhtml.SQLFORM object>>'
p4169
sS'kwargs'
p4170
S"{'dbio': True, 'onvalidation': <function checkfilter>}"
p4171
ssg4089
I1951
sg4090
(dp4172
I1952
S'        return self'
p4173
sI1953
S''
sI1954
S''
sI1955
S'class BEAUTIFY(DIV):'
p4174
sI1946
S'        # or a function name to use as callback or None to do nothing.'
p4175
sI1947
S'        def action():'
p4176
sI1948
S'            return dict(form=SQLFORM(db.table).process(onsuccess=my_callback)'
p4177
sI1949
S'        """'
p4178
sI1950
S"        kwargs['dbio'] = kwargs.get('dbio',True) # necessary for SQLHTML forms"
p4179
sI1951
S'        self.validate(**kwargs)'
p4180
ssg4102
S"(self=<gluon.sqlhtml.SQLFORM object>, **kwargs={'dbio': True, 'onvalidation': <function checkfilter>})"
p4181
sg4104
S'process'
p4182
sa(dp4183
g4081
S'/home/ian/web2py/gluon/html.py'
p4184
sg4083
(dp4185
S'self'
p4186
S'<gluon.sqlhtml.SQLFORM object>'
p4187
sS'self.accepts'
p4188
S'<bound method SQLFORM.accepts of <gluon.sqlhtml.SQLFORM object>>'
p4189
sS'kwargs'
p4190
S"{'dbio': True, 'onvalidation': <function checkfilter>, 'request_vars': <Storage {'body': 'a witty comment', 'filter': '..., '_formname': 'plugin_comments_comment/create'}>, 'session': <Storage {'_formkey[blog_tags/create]': '44eac6c...ister]': 'b362dbb4-29ba-465c-80f3-e9b01ad2803d'}>}"
p4191
ssg4089
I1898
sg4090
(dp4192
I1893
S"        for key in ('message_onsuccess','message_onfailure','onsuccess',"
p4193
sI1894
S"                    'onfailure','next'):"
p4194
sI1895
S'            if key in kwargs:'
p4195
sI1896
S'                del kwargs[key]'
p4196
sI1897
S''
sI1898
S'        if self.accepts(**kwargs):'
p4197
sI1899
S"            if onsuccess == 'flash':"
p4198
sI1900
S'                if next:'
p4199
sI1901
S'                    current.session.flash = message_onsuccess'
p4200
sI1902
S'                else:'
p4201
ssg4102
S"(self=<gluon.sqlhtml.SQLFORM object>, **kwargs={'dbio': True, 'onvalidation': <function checkfilter>, 'request_vars': <Storage {'body': 'a witty comment', 'filter': '..., '_formname': 'plugin_comments_comment/create'}>, 'session': <Storage {'_formkey[blog_tags/create]': '44eac6c...ister]': 'b362dbb4-29ba-465c-80f3-e9b01ad2803d'}>})"
p4202
sg4104
S'validate'
p4203
sa(dp4204
g4081
S'/home/ian/web2py/gluon/sqlhtml.py'
p4205
sg4083
(dp4206
S'self.vars.id'
p4207
S'None'
p4208
sS'fields'
p4209
S"{'body': 'a witty comment', 'filter': '', 'posted_by': 2, 'posted_on': datetime.datetime(2012, 1, 31, 21, 42, 38, 219126)}"
p4210
sS'self'
p4211
S'<gluon.sqlhtml.SQLFORM object>'
p4212
sS'self.vars'
p4213
S"<Storage {'filter': '', 'body': 'a witty comment'}>"
p4214
sS'self.table.insert'
p4215
S"<bound method Table.insert of <Table {'body': <g...ted_on': <gluon.dal.Field object at 0x25d0490>}>>"
p4216
sS'self.table'
p4217
S"<Table {'body': <gluon.dal.Field object at 0x25d...sted_on': <gluon.dal.Field object at 0x25d0490>}>"
p4218
ssg4089
I1267
sg4090
(dp4219
I1262
S'                if record_id:'
p4220
sI1263
S'                    self.vars.id = self.record.id'
p4221
sI1264
S'                    if fields:'
p4222
sI1265
S'                        self.table._db(self.table._id == self.record.id).update(**fields)'
p4223
sI1266
S'                else:'
p4224
sI1267
S'                    self.vars.id = self.table.insert(**fields)'
p4225
sI1268
S'        self.accepted = ret'
p4226
sI1269
S'        return ret'
p4227
sI1270
S''
sI1271
S'    @staticmethod'
p4228
ssg4102
S"(self=<gluon.sqlhtml.SQLFORM object>, request_vars=<Storage {'body': 'a witty comment', 'filter': '..., '_formname': 'plugin_comments_comment/create'}>, session=<Storage {'_formkey[blog_tags/create]': '44eac6c...ister]': 'b362dbb4-29ba-465c-80f3-e9b01ad2803d'}>, formname='plugin_comments_comment/create', keepvalues=False, onvalidation=<function checkfilter>, dbio=True, hideerror=False, detect_record_change=False)"
p4229
sg4104
S'accepts'
p4230
sa(dp4231
g4081
S'/home/ian/web2py/gluon/dal.py'
p4232
sg4083
(dp4233
S'self._listify'
p4234
S"<bound method Table._listify of <Table {'body': ...ted_on': <gluon.dal.Field object at 0x25d0490>}>>"
p4235
sS'fields'
p4236
S"{'body': 'a witty comment', 'filter': '', 'posted_by': 2, 'posted_on': datetime.datetime(2012, 1, 31, 21, 42, 38, 219126)}"
p4237
sS'self'
p4238
S"<Table {'body': <gluon.dal.Field object at 0x25d...sted_on': <gluon.dal.Field object at 0x25d0490>}>"
p4239
sS'self._db._adapter'
p4240
S'<gluon.dal.SQLiteAdapter object>'
p4241
sS'self._db._adapter.insert'
p4242
S'<bound method SQLiteAdapter.insert of <gluon.dal.SQLiteAdapter object>>'
p4243
sS'self._db'
p4244
S"<DAL {'auth_event': <Table {'origin': <gluon.dal... '_id': <gluon.dal.Field object at 0x25f1b10>}>}>"
p4245
ssg4089
I5597
sg4090
(dp4246
I5600
S'        response = Row()'
p4247
sI5601
S'        response.errors = Row()'
p4248
sI5592
S''
sI5593
S'    def _insert(self, **fields):'
p4249
sI5594
S'        return self._db._adapter._insert(self,self._listify(fields))'
p4250
sI5595
S''
sI5596
S'    def insert(self, **fields):'
p4251
sI5597
S'        return self._db._adapter.insert(self,self._listify(fields))'
p4252
sI5598
S''
sI5599
S'    def validate_and_insert(self,**fields):'
p4253
ssg4102
S"(self=<Table {'body': <gluon.dal.Field object at 0x25d...sted_on': <gluon.dal.Field object at 0x25d0490>}>, **fields={'body': 'a witty comment', 'filter': '', 'posted_by': 2, 'posted_on': datetime.datetime(2012, 1, 31, 21, 42, 38, 219126)})"
p4254
sg4104
S'insert'
p4255
sa(dp4256
g4081
S'/home/ian/web2py/gluon/dal.py'
p4257
sg4083
(dp4258
S'builtinSyntaxError'
p4259
S"<type 'exceptions.SyntaxError'>"
p4260
sS'name'
p4261
S"'filter'"
p4262
ssg4089
I5573
sg4090
(dp4263
I5568
S'        new_fields = []'
p4264
sI5569
S'        new_fields_names = []'
p4265
sI5570
S'        for name in fields:'
p4266
sI5571
S'            if not name in self.fields:'
p4267
sI5572
S"                if name != 'id':"
p4268
sI5573
S"                    raise SyntaxError, 'Field %s does not belong to the table' % name"
p4269
sI5574
S'            else:'
p4270
sI5575
S'                new_fields.append((self[name],fields[name]))'
p4271
sI5576
S'                new_fields_names.append(name)'
p4272
sI5577
S'        for ofield in self:'
p4273
ssg4102
S"(self=<Table {'body': <gluon.dal.Field object at 0x25d...sted_on': <gluon.dal.Field object at 0x25d0490>}>, fields={'body': 'a witty comment', 'filter': '', 'posted_by': 2, 'posted_on': datetime.datetime(2012, 1, 31, 21, 42, 38, 219126)}, update=False)"
p4274
sg4104
S'_listify'
p4275
sasS'pyver'
p4276
S'Python 2.7.2+: /usr/bin/python2.7'
p4277
sS'session'
p4278
g69
(g70
g71
NtRp4279
(dp4280
g74
(dp4281
sg76
(lp4282
g69
(g78
g71
NtRp4283
(dp4284
g74
(dp4285
g82
I5
ssg83
Nsg76
(lp4286
g69
(g85
g71
NtRp4287
(dp4288
g74
(dp4289
sg83
g4283
sg76
(lp4290
g69
(g90
g71
NtRp4291
(dp4292
g74
(dp4293
g94
g95
ssg83
g4287
sg76
(lp4294
S'auth'
p4295
asbag69
(g90
g71
NtRp4296
(dp4297
g74
(dp4298
g101
g102
ssg83
g4287
sg76
(lp4299
S':'
asbag69
(g90
g71
NtRp4300
(dp4301
g74
(dp4302
sg83
g4287
sg76
(lp4303
g69
(g70
g71
NtRp4304
(dp4305
g74
(dp4306
g82
I5
ssg83
g4300
sg76
(lp4307
g69
(g78
g71
NtRp4308
(dp4309
g74
(dp4310
g82
I4
ssg83
Nsg76
(lp4311
g69
(g85
g71
NtRp4312
(dp4313
g74
(dp4314
sg83
g4308
sg76
(lp4315
g69
(g90
g71
NtRp4316
(dp4317
g74
(dp4318
g94
g95
ssg83
g4312
sg76
(lp4319
S'expiration'
p4320
asbag69
(g90
g71
NtRp4321
(dp4322
g74
(dp4323
g101
g102
ssg83
g4312
sg76
(lp4324
S':'
asbag69
(g90
g71
NtRp4325
(dp4326
g74
(dp4327
sg83
g4312
sg76
(lp4328
g69
(g70
g71
NtRp4329
(dp4330
g74
(dp4331
g82
I4
ssg83
g4325
sg76
(lp4332
S'2592000'
p4333
asbasbasbag69
(g85
g71
NtRp4334
(dp4335
g74
(dp4336
sg83
g4308
sg76
(lp4337
g69
(g90
g71
NtRp4338
(dp4339
g74
(dp4340
g94
g95
ssg83
g4334
sg76
(lp4341
S'hmac_key'
p4342
asbag69
(g90
g71
NtRp4343
(dp4344
g74
(dp4345
g101
g102
ssg83
g4334
sg76
(lp4346
S':'
asbag69
(g90
g71
NtRp4347
(dp4348
g74
(dp4349
sg83
g4334
sg76
(lp4350
g69
(g70
g71
NtRp4351
(dp4352
g74
(dp4353
g82
I4
ssg83
g4347
sg76
(lp4354
S'76a4214d-13b1-4c13-8ce9-f6774d96a1e1'
p4355
asbasbasbag69
(g85
g71
NtRp4356
(dp4357
g74
(dp4358
sg83
g4308
sg76
(lp4359
g69
(g90
g71
NtRp4360
(dp4361
g74
(dp4362
g94
g95
ssg83
g4356
sg76
(lp4363
S'last_visit'
p4364
asbag69
(g90
g71
NtRp4365
(dp4366
g74
(dp4367
g101
g102
ssg83
g4356
sg76
(lp4368
S':'
asbag69
(g90
g71
NtRp4369
(dp4370
g74
(dp4371
sg83
g4356
sg76
(lp4372
g69
(g70
g71
NtRp4373
(dp4374
g74
(dp4375
g82
I4
ssg83
g4369
sg76
(lp4376
S'datetime.datetime(2012, 1, 31, 20, 35, 53, 934963)'
p4377
asbasbasbag69
(g85
g71
NtRp4378
(dp4379
g74
(dp4380
sg83
g4308
sg76
(lp4381
g69
(g90
g71
NtRp4382
(dp4383
g74
(dp4384
g94
g95
ssg83
g4378
sg76
(lp4385
S'remember'
p4386
asbag69
(g90
g71
NtRp4387
(dp4388
g74
(dp4389
g101
g102
ssg83
g4378
sg76
(lp4390
S':'
asbag69
(g90
g71
NtRp4391
(dp4392
g74
(dp4393
sg83
g4378
sg76
(lp4394
g69
(g70
g71
NtRp4395
(dp4396
g74
(dp4397
g82
I4
ssg83
g4391
sg76
(lp4398
g1593
asbasbasbag69
(g85
g71
NtRp4399
(dp4400
g74
(dp4401
sg83
g4308
sg76
(lp4402
g69
(g90
g71
NtRp4403
(dp4404
g74
(dp4405
g94
g95
ssg83
g4399
sg76
(lp4406
S'user'
p4407
asbag69
(g90
g71
NtRp4408
(dp4409
g74
(dp4410
g101
g102
ssg83
g4399
sg76
(lp4411
S':'
asbag69
(g90
g71
NtRp4412
(dp4413
g74
(dp4414
sg83
g4399
sg76
(lp4415
g69
(g70
g71
NtRp4416
(dp4417
g74
(dp4418
g82
I4
ssg83
g4412
sg76
(lp4419
g69
(g78
g71
NtRp4420
(dp4421
g74
(dp4422
g82
I3
ssg83
Nsg76
(lp4423
g69
(g85
g71
NtRp4424
(dp4425
g74
(dp4426
sg83
g4420
sg76
(lp4427
g69
(g90
g71
NtRp4428
(dp4429
g74
(dp4430
g94
g95
ssg83
g4424
sg76
(lp4431
S'email'
p4432
asbag69
(g90
g71
NtRp4433
(dp4434
g74
(dp4435
g101
g102
ssg83
g4424
sg76
(lp4436
S':'
asbag69
(g90
g71
NtRp4437
(dp4438
g74
(dp4439
sg83
g4424
sg76
(lp4440
g69
(g70
g71
NtRp4441
(dp4442
g74
(dp4443
g82
I3
ssg83
g4437
sg76
(lp4444
S'scottianw@gmail.com'
p4445
asbasbasbag69
(g85
g71
NtRp4446
(dp4447
g74
(dp4448
sg83
g4420
sg76
(lp4449
g69
(g90
g71
NtRp4450
(dp4451
g74
(dp4452
g94
g95
ssg83
g4446
sg76
(lp4453
S'first_name'
p4454
asbag69
(g90
g71
NtRp4455
(dp4456
g74
(dp4457
g101
g102
ssg83
g4446
sg76
(lp4458
S':'
asbag69
(g90
g71
NtRp4459
(dp4460
g74
(dp4461
sg83
g4446
sg76
(lp4462
g69
(g70
g71
NtRp4463
(dp4464
g74
(dp4465
g82
I3
ssg83
g4459
sg76
(lp4466
S'Ian'
p4467
asbasbasbag69
(g85
g71
NtRp4468
(dp4469
g74
(dp4470
sg83
g4420
sg76
(lp4471
g69
(g90
g71
NtRp4472
(dp4473
g74
(dp4474
g94
g95
ssg83
g4468
sg76
(lp4475
S'id'
p4476
asbag69
(g90
g71
NtRp4477
(dp4478
g74
(dp4479
g101
g102
ssg83
g4468
sg76
(lp4480
S':'
asbag69
(g90
g71
NtRp4481
(dp4482
g74
(dp4483
sg83
g4468
sg76
(lp4484
g69
(g70
g71
NtRp4485
(dp4486
g74
(dp4487
g82
I3
ssg83
g4481
sg76
(lp4488
S'2'
asbasbasbag69
(g85
g71
NtRp4489
(dp4490
g74
(dp4491
sg83
g4420
sg76
(lp4492
g69
(g90
g71
NtRp4493
(dp4494
g74
(dp4495
g94
g95
ssg83
g4489
sg76
(lp4496
S'last_name'
p4497
asbag69
(g90
g71
NtRp4498
(dp4499
g74
(dp4500
g101
g102
ssg83
g4489
sg76
(lp4501
S':'
asbag69
(g90
g71
NtRp4502
(dp4503
g74
(dp4504
sg83
g4489
sg76
(lp4505
g69
(g70
g71
NtRp4506
(dp4507
g74
(dp4508
g82
I3
ssg83
g4502
sg76
(lp4509
S'Scott'
p4510
asbasbasbag69
(g85
g71
NtRp4511
(dp4512
g74
(dp4513
sg83
g4420
sg76
(lp4514
g69
(g90
g71
NtRp4515
(dp4516
g74
(dp4517
g94
g95
ssg83
g4511
sg76
(lp4518
S'password'
p4519
asbag69
(g90
g71
NtRp4520
(dp4521
g74
(dp4522
g101
g102
ssg83
g4511
sg76
(lp4523
S':'
asbag69
(g90
g71
NtRp4524
(dp4525
g74
(dp4526
sg83
g4511
sg76
(lp4527
g69
(g70
g71
NtRp4528
(dp4529
g74
(dp4530
g82
I3
ssg83
g4524
sg76
(lp4531
S'351bc855a8ae4839e89ee60d2f279ed9'
p4532
asbasbasbag69
(g85
g71
NtRp4533
(dp4534
g74
(dp4535
sg83
g4420
sg76
(lp4536
g69
(g90
g71
NtRp4537
(dp4538
g74
(dp4539
g94
g95
ssg83
g4533
sg76
(lp4540
S'registration_id'
p4541
asbag69
(g90
g71
NtRp4542
(dp4543
g74
(dp4544
g101
g102
ssg83
g4533
sg76
(lp4545
S':'
asbag69
(g90
g71
NtRp4546
(dp4547
g74
(dp4548
sg83
g4533
sg76
(lp4549
g69
(g70
g71
NtRp4550
(dp4551
g74
(dp4552
g82
I3
ssg83
g4546
sg76
(lp4553
S''
asbasbasbag69
(g85
g71
NtRp4554
(dp4555
g74
(dp4556
sg83
g4420
sg76
(lp4557
g69
(g90
g71
NtRp4558
(dp4559
g74
(dp4560
g94
g95
ssg83
g4554
sg76
(lp4561
S'registration_key'
p4562
asbag69
(g90
g71
NtRp4563
(dp4564
g74
(dp4565
g101
g102
ssg83
g4554
sg76
(lp4566
S':'
asbag69
(g90
g71
NtRp4567
(dp4568
g74
(dp4569
sg83
g4554
sg76
(lp4570
g69
(g70
g71
NtRp4571
(dp4572
g74
(dp4573
g82
I3
ssg83
g4567
sg76
(lp4574
S''
asbasbasbag69
(g85
g71
NtRp4575
(dp4576
g74
(dp4577
sg83
g4420
sg76
(lp4578
g69
(g90
g71
NtRp4579
(dp4580
g74
(dp4581
g94
g95
ssg83
g4575
sg76
(lp4582
S'reset_password_key'
p4583
asbag69
(g90
g71
NtRp4584
(dp4585
g74
(dp4586
g101
g102
ssg83
g4575
sg76
(lp4587
S':'
asbag69
(g90
g71
NtRp4588
(dp4589
g74
(dp4590
sg83
g4575
sg76
(lp4591
g69
(g70
g71
NtRp4592
(dp4593
g74
(dp4594
g82
I3
ssg83
g4588
sg76
(lp4595
S''
asbasbasbasbasbasbasbasbasbasbasbag69
(g85
g71
NtRp4596
(dp4597
g74
(dp4598
sg83
g4283
sg76
(lp4599
g69
(g90
g71
NtRp4600
(dp4601
g74
(dp4602
g94
g95
ssg83
g4596
sg76
(lp4603
S'last_query'
p4604
asbag69
(g90
g71
NtRp4605
(dp4606
g74
(dp4607
g101
g102
ssg83
g4596
sg76
(lp4608
S':'
asbag69
(g90
g71
NtRp4609
(dp4610
g74
(dp4611
sg83
g4596
sg76
(lp4612
g69
(g70
g71
NtRp4613
(dp4614
g74
(dp4615
g82
I5
ssg83
g4609
sg76
(lp4616
S'db.auth_user.id>0'
p4617
asbasbasbasbasbsS'etype'
p4618
S"<type 'exceptions.SyntaxError'>"
p4619
sS'date'
p4620
S'Tue Jan 31 21:42:38 2012'
p4621
sS'response'
p4622
g69
(g70
g71
NtRp4623
(dp4624
g74
(dp4625
sg76
(lp4626
g69
(g78
g71
NtRp4627
(dp4628
g74
(dp4629
g82
I5
ssg83
Nsg76
(lp4630
g69
(g85
g71
NtRp4631
(dp4632
g74
(dp4633
sg83
g4627
sg76
(lp4634
g69
(g90
g71
NtRp4635
(dp4636
g74
(dp4637
g94
g95
ssg83
g4631
sg76
(lp4638
g167
asbag69
(g90
g71
NtRp4639
(dp4640
g74
(dp4641
g101
g102
ssg83
g4631
sg76
(lp4642
S':'
asbag69
(g90
g71
NtRp4643
(dp4644
g74
(dp4645
sg83
g4631
sg76
(lp4646
g69
(g70
g71
NtRp4647
(dp4648
g74
(dp4649
g82
I5
ssg83
g4643
sg76
(lp4650
S'<cStringIO.StringO object at 0x25e8fb8>'
p4651
asbasbasbag69
(g85
g71
NtRp4652
(dp4653
g74
(dp4654
sg83
g4627
sg76
(lp4655
g69
(g90
g71
NtRp4656
(dp4657
g74
(dp4658
g94
g95
ssg83
g4652
sg76
(lp4659
g255
asbag69
(g90
g71
NtRp4660
(dp4661
g74
(dp4662
g101
g102
ssg83
g4652
sg76
(lp4663
S':'
asbag69
(g90
g71
NtRp4664
(dp4665
g74
(dp4666
sg83
g4652
sg76
(lp4667
g69
(g70
g71
NtRp4668
(dp4669
g74
(dp4670
g82
I5
ssg83
g4664
sg76
(lp4671
g69
(g78
g71
NtRp4672
(dp4673
g74
(dp4674
g82
I4
ssg83
Nsg76
(lp4675
g69
(g85
g71
NtRp4676
(dp4677
g74
(dp4678
sg83
g4672
sg76
(lp4679
g69
(g90
g71
NtRp4680
(dp4681
g74
(dp4682
g94
g95
ssg83
g4676
sg76
(lp4683
S'session_id_blog'
p4684
asbag69
(g90
g71
NtRp4685
(dp4686
g74
(dp4687
g101
g102
ssg83
g4676
sg76
(lp4688
S':'
asbag69
(g90
g71
NtRp4689
(dp4690
g74
(dp4691
sg83
g4676
sg76
(lp4692
g69
(g70
g71
NtRp4693
(dp4694
g74
(dp4695
g82
I4
ssg83
g4689
sg76
(lp4696
g69
(g78
g71
NtRp4697
(dp4698
g74
(dp4699
g82
I3
ssg83
Nsg76
(lp4700
g69
(g85
g71
NtRp4701
(dp4702
g74
(dp4703
sg83
g4697
sg76
(lp4704
g69
(g90
g71
NtRp4705
(dp4706
g74
(dp4707
g94
g95
ssg83
g4701
sg76
(lp4708
g305
asbag69
(g90
g71
NtRp4709
(dp4710
g74
(dp4711
g101
g102
ssg83
g4701
sg76
(lp4712
S':'
asbag69
(g90
g71
NtRp4713
(dp4714
g74
(dp4715
sg83
g4701
sg76
(lp4716
g69
(g70
g71
NtRp4717
(dp4718
g74
(dp4719
g82
I3
ssg83
g4713
sg76
(lp4720
S''
asbasbasbag69
(g85
g71
NtRp4721
(dp4722
g74
(dp4723
sg83
g4697
sg76
(lp4724
g69
(g90
g71
NtRp4725
(dp4726
g74
(dp4727
g94
g95
ssg83
g4721
sg76
(lp4728
g326
asbag69
(g90
g71
NtRp4729
(dp4730
g74
(dp4731
g101
g102
ssg83
g4721
sg76
(lp4732
S':'
asbag69
(g90
g71
NtRp4733
(dp4734
g74
(dp4735
sg83
g4721
sg76
(lp4736
g69
(g70
g71
NtRp4737
(dp4738
g74
(dp4739
g82
I3
ssg83
g4733
sg76
(lp4740
S''
asbasbasbag69
(g85
g71
NtRp4741
(dp4742
g74
(dp4743
sg83
g4697
sg76
(lp4744
g69
(g90
g71
NtRp4745
(dp4746
g74
(dp4747
g94
g95
ssg83
g4741
sg76
(lp4748
g347
asbag69
(g90
g71
NtRp4749
(dp4750
g74
(dp4751
g101
g102
ssg83
g4741
sg76
(lp4752
S':'
asbag69
(g90
g71
NtRp4753
(dp4754
g74
(dp4755
sg83
g4741
sg76
(lp4756
g69
(g70
g71
NtRp4757
(dp4758
g74
(dp4759
g82
I3
ssg83
g4753
sg76
(lp4760
S''
asbasbasbag69
(g85
g71
NtRp4761
(dp4762
g74
(dp4763
sg83
g4697
sg76
(lp4764
g69
(g90
g71
NtRp4765
(dp4766
g74
(dp4767
g94
g95
ssg83
g4761
sg76
(lp4768
g368
asbag69
(g90
g71
NtRp4769
(dp4770
g74
(dp4771
g101
g102
ssg83
g4761
sg76
(lp4772
S':'
asbag69
(g90
g71
NtRp4773
(dp4774
g74
(dp4775
sg83
g4761
sg76
(lp4776
g69
(g70
g71
NtRp4777
(dp4778
g74
(dp4779
g82
I3
ssg83
g4773
sg76
(lp4780
S''
asbasbasbag69
(g85
g71
NtRp4781
(dp4782
g74
(dp4783
sg83
g4697
sg76
(lp4784
g69
(g90
g71
NtRp4785
(dp4786
g74
(dp4787
g94
g95
ssg83
g4781
sg76
(lp4788
g389
asbag69
(g90
g71
NtRp4789
(dp4790
g74
(dp4791
g101
g102
ssg83
g4781
sg76
(lp4792
S':'
asbag69
(g90
g71
NtRp4793
(dp4794
g74
(dp4795
sg83
g4781
sg76
(lp4796
g69
(g70
g71
NtRp4797
(dp4798
g74
(dp4799
g82
I3
ssg83
g4793
sg76
(lp4800
S''
asbasbasbag69
(g85
g71
NtRp4801
(dp4802
g74
(dp4803
sg83
g4697
sg76
(lp4804
g69
(g90
g71
NtRp4805
(dp4806
g74
(dp4807
g94
g95
ssg83
g4801
sg76
(lp4808
g410
asbag69
(g90
g71
NtRp4809
(dp4810
g74
(dp4811
g101
g102
ssg83
g4801
sg76
(lp4812
S':'
asbag69
(g90
g71
NtRp4813
(dp4814
g74
(dp4815
sg83
g4801
sg76
(lp4816
g69
(g70
g71
NtRp4817
(dp4818
g74
(dp4819
g82
I3
ssg83
g4813
sg76
(lp4820
S'/'
asbasbasbag69
(g85
g71
NtRp4821
(dp4822
g74
(dp4823
sg83
g4697
sg76
(lp4824
g69
(g90
g71
NtRp4825
(dp4826
g74
(dp4827
g94
g95
ssg83
g4821
sg76
(lp4828
g431
asbag69
(g90
g71
NtRp4829
(dp4830
g74
(dp4831
g101
g102
ssg83
g4821
sg76
(lp4832
S':'
asbag69
(g90
g71
NtRp4833
(dp4834
g74
(dp4835
sg83
g4821
sg76
(lp4836
g69
(g70
g71
NtRp4837
(dp4838
g74
(dp4839
g82
I3
ssg83
g4833
sg76
(lp4840
S''
asbasbasbag69
(g85
g71
NtRp4841
(dp4842
g74
(dp4843
sg83
g4697
sg76
(lp4844
g69
(g90
g71
NtRp4845
(dp4846
g74
(dp4847
g94
g95
ssg83
g4841
sg76
(lp4848
g452
asbag69
(g90
g71
NtRp4849
(dp4850
g74
(dp4851
g101
g102
ssg83
g4841
sg76
(lp4852
S':'
asbag69
(g90
g71
NtRp4853
(dp4854
g74
(dp4855
sg83
g4841
sg76
(lp4856
g69
(g70
g71
NtRp4857
(dp4858
g74
(dp4859
g82
I3
ssg83
g4853
sg76
(lp4860
S''
asbasbasbasbasbasbasbasbasbasbasbag69
(g85
g71
NtRp4861
(dp4862
g74
(dp4863
sg83
g4627
sg76
(lp4864
g69
(g90
g71
NtRp4865
(dp4866
g74
(dp4867
g94
g95
ssg83
g4861
sg76
(lp4868
S'files'
p4869
asbag69
(g90
g71
NtRp4870
(dp4871
g74
(dp4872
g101
g102
ssg83
g4861
sg76
(lp4873
S':'
asbag69
(g90
g71
NtRp4874
(dp4875
g74
(dp4876
sg83
g4861
sg76
(lp4877
g69
(g70
g71
NtRp4878
(dp4879
g74
(dp4880
g82
I5
ssg83
g4874
sg76
(lp4881
g69
(g78
g71
NtRp4882
(dp4883
g74
(dp4884
g82
I4
ssg83
Nsg76
(lp4885
sbasbasbasbag69
(g85
g71
NtRp4886
(dp4887
g74
(dp4888
sg83
g4627
sg76
(lp4889
g69
(g90
g71
NtRp4890
(dp4891
g74
(dp4892
g94
g95
ssg83
g4886
sg76
(lp4893
S'flash'
p4894
asbag69
(g90
g71
NtRp4895
(dp4896
g74
(dp4897
g101
g102
ssg83
g4886
sg76
(lp4898
S':'
asbag69
(g90
g71
NtRp4899
(dp4900
g74
(dp4901
sg83
g4886
sg76
(lp4902
g69
(g70
g71
NtRp4903
(dp4904
g74
(dp4905
g82
I5
ssg83
g4899
sg76
(lp4906
S''
asbasbasbag69
(g85
g71
NtRp4907
(dp4908
g74
(dp4909
sg83
g4627
sg76
(lp4910
g69
(g90
g71
NtRp4911
(dp4912
g74
(dp4913
g94
g95
ssg83
g4907
sg76
(lp4914
S'generic_patterns'
p4915
asbag69
(g90
g71
NtRp4916
(dp4917
g74
(dp4918
g101
g102
ssg83
g4907
sg76
(lp4919
S':'
asbag69
(g90
g71
NtRp4920
(dp4921
g74
(dp4922
sg83
g4907
sg76
(lp4923
g69
(g70
g71
NtRp4924
(dp4925
g74
(dp4926
g82
I5
ssg83
g4920
sg76
(lp4927
g69
(g78
g71
NtRp4928
(dp4929
g74
(dp4930
g82
I4
ssg83
Nsg76
(lp4931
g69
(g85
g71
NtRp4932
(dp4933
g74
(dp4934
sg83
g4928
sg76
(lp4935
g69
(g90
g71
NtRp4936
(dp4937
g74
(dp4938
sg83
g4932
sg76
(lp4939
g69
(g70
g71
NtRp4940
(dp4941
g74
(dp4942
g82
I4
ssg83
g4936
sg76
(lp4943
S'*'
asbasbasbasbasbasbasbag69
(g85
g71
NtRp4944
(dp4945
g74
(dp4946
sg83
g4627
sg76
(lp4947
g69
(g90
g71
NtRp4948
(dp4949
g74
(dp4950
g94
g95
ssg83
g4944
sg76
(lp4951
S'headers'
p4952
asbag69
(g90
g71
NtRp4953
(dp4954
g74
(dp4955
g101
g102
ssg83
g4944
sg76
(lp4956
S':'
asbag69
(g90
g71
NtRp4957
(dp4958
g74
(dp4959
sg83
g4944
sg76
(lp4960
g69
(g70
g71
NtRp4961
(dp4962
g74
(dp4963
g82
I5
ssg83
g4957
sg76
(lp4964
g69
(g78
g71
NtRp4965
(dp4966
g74
(dp4967
g82
I4
ssg83
Nsg76
(lp4968
g69
(g85
g71
NtRp4969
(dp4970
g74
(dp4971
sg83
g4965
sg76
(lp4972
g69
(g90
g71
NtRp4973
(dp4974
g74
(dp4975
g94
g95
ssg83
g4969
sg76
(lp4976
S'Cache-Control'
p4977
asbag69
(g90
g71
NtRp4978
(dp4979
g74
(dp4980
g101
g102
ssg83
g4969
sg76
(lp4981
S':'
asbag69
(g90
g71
NtRp4982
(dp4983
g74
(dp4984
sg83
g4969
sg76
(lp4985
g69
(g70
g71
NtRp4986
(dp4987
g74
(dp4988
g82
I4
ssg83
g4982
sg76
(lp4989
S'no-store, no-cache, must-revalidate, post-check=0, pre-check=0'
p4990
asbasbasbag69
(g85
g71
NtRp4991
(dp4992
g74
(dp4993
sg83
g4965
sg76
(lp4994
g69
(g90
g71
NtRp4995
(dp4996
g74
(dp4997
g94
g95
ssg83
g4991
sg76
(lp4998
S'Content-Type'
p4999
asbag69
(g90
g71
NtRp5000
(dp5001
g74
(dp5002
g101
g102
ssg83
g4991
sg76
(lp5003
S':'
asbag69
(g90
g71
NtRp5004
(dp5005
g74
(dp5006
sg83
g4991
sg76
(lp5007
g69
(g70
g71
NtRp5008
(dp5009
g74
(dp5010
g82
I4
ssg83
g5004
sg76
(lp5011
S'text/html; charset=utf-8'
p5012
asbasbasbag69
(g85
g71
NtRp5013
(dp5014
g74
(dp5015
sg83
g4965
sg76
(lp5016
g69
(g90
g71
NtRp5017
(dp5018
g74
(dp5019
g94
g95
ssg83
g5013
sg76
(lp5020
S'Expires'
p5021
asbag69
(g90
g71
NtRp5022
(dp5023
g74
(dp5024
g101
g102
ssg83
g5013
sg76
(lp5025
S':'
asbag69
(g90
g71
NtRp5026
(dp5027
g74
(dp5028
sg83
g5013
sg76
(lp5029
g69
(g70
g71
NtRp5030
(dp5031
g74
(dp5032
g82
I4
ssg83
g5026
sg76
(lp5033
S'Wed, 01 Feb 2012 02:42:38 GMT'
p5034
asbasbasbag69
(g85
g71
NtRp5035
(dp5036
g74
(dp5037
sg83
g4965
sg76
(lp5038
g69
(g90
g71
NtRp5039
(dp5040
g74
(dp5041
g94
g95
ssg83
g5035
sg76
(lp5042
S'Pragma'
p5043
asbag69
(g90
g71
NtRp5044
(dp5045
g74
(dp5046
g101
g102
ssg83
g5035
sg76
(lp5047
S':'
asbag69
(g90
g71
NtRp5048
(dp5049
g74
(dp5050
sg83
g5035
sg76
(lp5051
g69
(g70
g71
NtRp5052
(dp5053
g74
(dp5054
g82
I4
ssg83
g5048
sg76
(lp5055
S'no-cache'
p5056
asbasbasbag69
(g85
g71
NtRp5057
(dp5058
g74
(dp5059
sg83
g4965
sg76
(lp5060
g69
(g90
g71
NtRp5061
(dp5062
g74
(dp5063
g94
g95
ssg83
g5057
sg76
(lp5064
S'X-Powered-By'
p5065
asbag69
(g90
g71
NtRp5066
(dp5067
g74
(dp5068
g101
g102
ssg83
g5057
sg76
(lp5069
S':'
asbag69
(g90
g71
NtRp5070
(dp5071
g74
(dp5072
sg83
g5057
sg76
(lp5073
g69
(g70
g71
NtRp5074
(dp5075
g74
(dp5076
g82
I4
ssg83
g5070
sg76
(lp5077
S'web2py'
p5078
asbasbasbasbasbasbasbag69
(g85
g71
NtRp5079
(dp5080
g74
(dp5081
sg83
g4627
sg76
(lp5082
g69
(g90
g71
NtRp5083
(dp5084
g74
(dp5085
g94
g95
ssg83
g5079
sg76
(lp5086
S'menu'
p5087
asbag69
(g90
g71
NtRp5088
(dp5089
g74
(dp5090
g101
g102
ssg83
g5079
sg76
(lp5091
S':'
asbag69
(g90
g71
NtRp5092
(dp5093
g74
(dp5094
sg83
g5079
sg76
(lp5095
g69
(g70
g71
NtRp5096
(dp5097
g74
(dp5098
g82
I5
ssg83
g5092
sg76
(lp5099
g69
(g78
g71
NtRp5100
(dp5101
g74
(dp5102
g82
I4
ssg83
Nsg76
(lp5103
g69
(g85
g71
NtRp5104
(dp5105
g74
(dp5106
sg83
g5100
sg76
(lp5107
g69
(g90
g71
NtRp5108
(dp5109
g74
(dp5110
sg83
g5104
sg76
(lp5111
g69
(g70
g71
NtRp5112
(dp5113
g74
(dp5114
g82
I4
ssg83
g5108
sg76
(lp5115
g69
(g78
g71
NtRp5116
(dp5117
g74
(dp5118
g82
I3
ssg83
Nsg76
(lp5119
g69
(g85
g71
NtRp5120
(dp5121
g74
(dp5122
sg83
g5116
sg76
(lp5123
g69
(g90
g71
NtRp5124
(dp5125
g74
(dp5126
sg83
g5120
sg76
(lp5127
g69
(g70
g71
NtRp5128
(dp5129
g74
(dp5130
g82
I3
ssg83
g5124
sg76
(lp5131
cgluon.languages
lazyT_unpickle
p5132
(S't\x04\x00\x00\x00Home'
tRp5133
asbasbasbag69
(g85
g71
NtRp5134
(dp5135
g74
(dp5136
sg83
g5116
sg76
(lp5137
g69
(g90
g71
NtRp5138
(dp5139
g74
(dp5140
sg83
g5134
sg76
(lp5141
g69
(g70
g71
NtRp5142
(dp5143
g74
(dp5144
g82
I3
ssg83
g5138
sg76
(lp5145
g1593
asbasbasbag69
(g85
g71
NtRp5146
(dp5147
g74
(dp5148
sg83
g5116
sg76
(lp5149
g69
(g90
g71
NtRp5150
(dp5151
g74
(dp5152
sg83
g5146
sg76
(lp5153
g69
(g70
g71
NtRp5154
(dp5155
g74
(dp5156
g82
I3
ssg83
g5150
sg76
(lp5157
S'/blog/default/index.load'
p5158
asbasbasbag69
(g85
g71
NtRp5159
(dp5160
g74
(dp5161
sg83
g5116
sg76
(lp5162
g69
(g90
g71
NtRp5163
(dp5164
g74
(dp5165
sg83
g5159
sg76
(lp5166
g69
(g70
g71
NtRp5167
(dp5168
g74
(dp5169
g82
I3
ssg83
g5163
sg76
(lp5170
g69
(g78
g71
NtRp5171
(dp5172
g74
(dp5173
g82
I2
ssg83
Nsg76
(lp5174
sbasbasbasbasbasbasbasbag69
(g85
g71
NtRp5175
(dp5176
g74
(dp5177
sg83
g5100
sg76
(lp5178
g69
(g90
g71
NtRp5179
(dp5180
g74
(dp5181
sg83
g5175
sg76
(lp5182
g69
(g70
g71
NtRp5183
(dp5184
g74
(dp5185
g82
I4
ssg83
g5179
sg76
(lp5186
g69
(g78
g71
NtRp5187
(dp5188
g74
(dp5189
g82
I3
ssg83
Nsg76
(lp5190
g69
(g85
g71
NtRp5191
(dp5192
g74
(dp5193
sg83
g5187
sg76
(lp5194
g69
(g90
g71
NtRp5195
(dp5196
g74
(dp5197
sg83
g5191
sg76
(lp5198
g69
(g70
g71
NtRp5199
(dp5200
g74
(dp5201
g82
I3
ssg83
g5195
sg76
(lp5202
g69
(cgluon.html
SPAN
p5203
g71
NtRp5204
(dp5205
g74
(dp5206
g94
S'color:yellow'
p5207
ssg83
Nsg76
(lp5208
g5078
asbasbasbasbag69
(g85
g71
NtRp5209
(dp5210
g74
(dp5211
sg83
g5187
sg76
(lp5212
g69
(g90
g71
NtRp5213
(dp5214
g74
(dp5215
sg83
g5209
sg76
(lp5216
g69
(g70
g71
NtRp5217
(dp5218
g74
(dp5219
g82
I3
ssg83
g5213
sg76
(lp5220
g1593
asbasbasbag69
(g85
g71
NtRp5221
(dp5222
g74
(dp5223
sg83
g5187
sg76
(lp5224
g69
(g90
g71
NtRp5225
(dp5226
g74
(dp5227
sg83
g5221
sg76
(lp5228
g69
(g70
g71
NtRp5229
(dp5230
g74
(dp5231
g82
I3
ssg83
g5225
sg76
(lp5232
S'None'
p5233
asbasbasbag69
(g85
g71
NtRp5234
(dp5235
g74
(dp5236
sg83
g5187
sg76
(lp5237
g69
(g90
g71
NtRp5238
(dp5239
g74
(dp5240
sg83
g5234
sg76
(lp5241
g69
(g70
g71
NtRp5242
(dp5243
g74
(dp5244
g82
I3
ssg83
g5238
sg76
(lp5245
g69
(g78
g71
NtRp5246
(dp5247
g74
(dp5248
g82
I2
ssg83
Nsg76
(lp5249
g69
(g85
g71
NtRp5250
(dp5251
g74
(dp5252
sg83
g5246
sg76
(lp5253
g69
(g90
g71
NtRp5254
(dp5255
g74
(dp5256
sg83
g5250
sg76
(lp5257
g69
(g70
g71
NtRp5258
(dp5259
g74
(dp5260
g82
I2
ssg83
g5254
sg76
(lp5261
g69
(g78
g71
NtRp5262
(dp5263
g74
(dp5264
g82
I1
ssg83
Nsg76
(lp5265
g69
(g85
g71
NtRp5266
(dp5267
g74
(dp5268
sg83
g5262
sg76
(lp5269
g69
(g90
g71
NtRp5270
(dp5271
g74
(dp5272
sg83
g5266
sg76
(lp5273
g69
(g70
g71
NtRp5274
(dp5275
g74
(dp5276
g82
I1
ssg83
g5270
sg76
(lp5277
g5132
(S's\x08\x00\x00\x00My Sites'
tRp5278
asbasbasbag69
(g85
g71
NtRp5279
(dp5280
g74
(dp5281
sg83
g5262
sg76
(lp5282
g69
(g90
g71
NtRp5283
(dp5284
g74
(dp5285
sg83
g5279
sg76
(lp5286
g69
(g70
g71
NtRp5287
(dp5288
g74
(dp5289
g82
I1
ssg83
g5283
sg76
(lp5290
I00
asbasbasbag69
(g85
g71
NtRp5291
(dp5292
g74
(dp5293
sg83
g5262
sg76
(lp5294
g69
(g90
g71
NtRp5295
(dp5296
g74
(dp5297
sg83
g5291
sg76
(lp5298
g69
(g70
g71
NtRp5299
(dp5300
g74
(dp5301
g82
I1
ssg83
g5295
sg76
(lp5302
S'/admin/default/site.load'
p5303
asbasbasbasbasbasbasbag69
(g85
g71
NtRp5304
(dp5305
g74
(dp5306
sg83
g5246
sg76
(lp5307
g69
(g90
g71
NtRp5308
(dp5309
g74
(dp5310
sg83
g5304
sg76
(lp5311
g69
(g70
g71
NtRp5312
(dp5313
g74
(dp5314
g82
I2
ssg83
g5308
sg76
(lp5315
g69
(g78
g71
NtRp5316
(dp5317
g74
(dp5318
g82
I1
ssg83
Nsg76
(lp5319
g69
(g85
g71
NtRp5320
(dp5321
g74
(dp5322
sg83
g5316
sg76
(lp5323
g69
(g90
g71
NtRp5324
(dp5325
g74
(dp5326
sg83
g5320
sg76
(lp5327
g69
(g70
g71
NtRp5328
(dp5329
g74
(dp5330
g82
I1
ssg83
g5324
sg76
(lp5331
g5132
(S's\x08\x00\x00\x00This App'
tRp5332
asbasbasbag69
(g85
g71
NtRp5333
(dp5334
g74
(dp5335
sg83
g5316
sg76
(lp5336
g69
(g90
g71
NtRp5337
(dp5338
g74
(dp5339
sg83
g5333
sg76
(lp5340
g69
(g70
g71
NtRp5341
(dp5342
g74
(dp5343
g82
I1
ssg83
g5337
sg76
(lp5344
I00
asbasbasbag69
(g85
g71
NtRp5345
(dp5346
g74
(dp5347
sg83
g5316
sg76
(lp5348
g69
(g90
g71
NtRp5349
(dp5350
g74
(dp5351
sg83
g5345
sg76
(lp5352
g69
(g70
g71
NtRp5353
(dp5354
g74
(dp5355
g82
I1
ssg83
g5349
sg76
(lp5356
S'/admin/default/design/blog.load'
p5357
asbasbasbag69
(g85
g71
NtRp5358
(dp5359
g74
(dp5360
sg83
g5316
sg76
(lp5361
g69
(g90
g71
NtRp5362
(dp5363
g74
(dp5364
sg83
g5358
sg76
(lp5365
g69
(g70
g71
NtRp5366
(dp5367
g74
(dp5368
g82
I1
ssg83
g5362
sg76
(lp5369
(lp5370
(g5132
(S't\n\x00\x00\x00Controller'
tRp5371
I00
S'/admin/default/edit/blog/controllers/plugin_comments.py'
tp5372
a(g5132
(S't\x04\x00\x00\x00View'
tRp5373
I00
S'/admin/default/edit/blog/views/plugin_comments/post.load'
tp5374
a(g5132
(S't\x06\x00\x00\x00Layout'
tRp5375
I00
S'/admin/default/edit/blog/views/layout.html'
tp5376
a(g5132
(S't\n\x00\x00\x00Stylesheet'
tRp5377
I00
S'/admin/default/edit/blog/static/css/web2py.css'
tp5378
a(g5132
(S's\x08\x00\x00\x00DB Model'
tRp5379
I00
S'/admin/default/edit/blog/models/db.py'
tp5380
a(g5132
(S's\n\x00\x00\x00Menu Model'
tRp5381
I00
S'/admin/default/edit/blog/models/menu.py'
tp5382
a(g5132
(S't\x08\x00\x00\x00Database'
tRp5383
I00
S'/blog/appadmin/index.load'
tp5384
a(g5132
(S't\x06\x00\x00\x00Errors'
tRp5385
I00
S'/admin/default/errors/blog.load'
tp5386
a(g5132
(S't\x05\x00\x00\x00About'
tRp5387
I00
S'/admin/default/about/blog.load'
tp5388
aasbasbasbasbasbasbasbag69
(g85
g71
NtRp5389
(dp5390
g74
(dp5391
sg83
g5246
sg76
(lp5392
g69
(g90
g71
NtRp5393
(dp5394
g74
(dp5395
sg83
g5389
sg76
(lp5396
g69
(g70
g71
NtRp5397
(dp5398
g74
(dp5399
g82
I2
ssg83
g5393
sg76
(lp5400
g69
(g78
g71
NtRp5401
(dp5402
g74
(dp5403
g82
I1
ssg83
Nsg76
(lp5404
g69
(g85
g71
NtRp5405
(dp5406
g74
(dp5407
sg83
g5401
sg76
(lp5408
g69
(g90
g71
NtRp5409
(dp5410
g74
(dp5411
sg83
g5405
sg76
(lp5412
g69
(g70
g71
NtRp5413
(dp5414
g74
(dp5415
g82
I1
ssg83
g5409
sg76
(lp5416
S'web2py.com'
p5417
asbasbasbag69
(g85
g71
NtRp5418
(dp5419
g74
(dp5420
sg83
g5401
sg76
(lp5421
g69
(g90
g71
NtRp5422
(dp5423
g74
(dp5424
sg83
g5418
sg76
(lp5425
g69
(g70
g71
NtRp5426
(dp5427
g74
(dp5428
g82
I1
ssg83
g5422
sg76
(lp5429
I00
asbasbasbag69
(g85
g71
NtRp5430
(dp5431
g74
(dp5432
sg83
g5401
sg76
(lp5433
g69
(g90
g71
NtRp5434
(dp5435
g74
(dp5436
sg83
g5430
sg76
(lp5437
g69
(g70
g71
NtRp5438
(dp5439
g74
(dp5440
g82
I1
ssg83
g5434
sg76
(lp5441
S'http://www.web2py.com'
p5442
asbasbasbag69
(g85
g71
NtRp5443
(dp5444
g74
(dp5445
sg83
g5401
sg76
(lp5446
g69
(g90
g71
NtRp5447
(dp5448
g74
(dp5449
sg83
g5443
sg76
(lp5450
g69
(g70
g71
NtRp5451
(dp5452
g74
(dp5453
g82
I1
ssg83
g5447
sg76
(lp5454
(lp5455
(g5132
(S't\x08\x00\x00\x00Download'
tRp5456
I00
S'http://www.web2py.com/examples/default/download'
p5457
tp5458
a(g5132
(S't\x07\x00\x00\x00Support'
tRp5459
I00
S'http://www.web2py.com/examples/default/support'
p5460
tp5461
a(g5132
(S't\x04\x00\x00\x00Demo'
tRp5462
I00
S'http://web2py.com/demo_admin'
p5463
tp5464
a(g5132
(S's\x0e\x00\x00\x00Quick Examples'
tRp5465
I00
S'http://web2py.com/examples/default/examples'
p5466
tp5467
a(g5132
(S't\x03\x00\x00\x00FAQ'
tRp5468
I00
S'http://web2py.com/AlterEgo'
p5469
tp5470
a(g5132
(S't\x06\x00\x00\x00Videos'
tRp5471
I00
S'http://www.web2py.com/examples/default/videos/'
p5472
tp5473
a(g5132
(S's\x11\x00\x00\x00Free Applications'
tRp5474
I00
S'http://web2py.com/appliances'
p5475
tp5476
a(g5132
(S't\x07\x00\x00\x00Plugins'
tRp5477
I00
S'http://web2py.com/plugins'
p5478
tp5479
a(g5132
(S't\x07\x00\x00\x00Layouts'
tRp5480
I00
S'http://web2py.com/layouts'
p5481
tp5482
a(g5132
(S't\x07\x00\x00\x00Recipes'
tRp5483
I00
S'http://web2pyslices.com/'
p5484
tp5485
a(g5132
(S't\x08\x00\x00\x00Semantic'
tRp5486
I00
S'http://web2py.com/semantic'
p5487
tp5488
aasbasbasbasbasbasbasbag69
(g85
g71
NtRp5489
(dp5490
g74
(dp5491
sg83
g5246
sg76
(lp5492
g69
(g90
g71
NtRp5493
(dp5494
g74
(dp5495
sg83
g5489
sg76
(lp5496
g69
(g70
g71
NtRp5497
(dp5498
g74
(dp5499
g82
I2
ssg83
g5493
sg76
(lp5500
g69
(g78
g71
NtRp5501
(dp5502
g74
(dp5503
g82
I1
ssg83
Nsg76
(lp5504
g69
(g85
g71
NtRp5505
(dp5506
g74
(dp5507
sg83
g5501
sg76
(lp5508
g69
(g90
g71
NtRp5509
(dp5510
g74
(dp5511
sg83
g5505
sg76
(lp5512
g69
(g70
g71
NtRp5513
(dp5514
g74
(dp5515
g82
I1
ssg83
g5509
sg76
(lp5516
g5132
(S't\r\x00\x00\x00Documentation'
tRp5517
asbasbasbag69
(g85
g71
NtRp5518
(dp5519
g74
(dp5520
sg83
g5501
sg76
(lp5521
g69
(g90
g71
NtRp5522
(dp5523
g74
(dp5524
sg83
g5518
sg76
(lp5525
g69
(g70
g71
NtRp5526
(dp5527
g74
(dp5528
g82
I1
ssg83
g5522
sg76
(lp5529
I00
asbasbasbag69
(g85
g71
NtRp5530
(dp5531
g74
(dp5532
sg83
g5501
sg76
(lp5533
g69
(g90
g71
NtRp5534
(dp5535
g74
(dp5536
sg83
g5530
sg76
(lp5537
g69
(g70
g71
NtRp5538
(dp5539
g74
(dp5540
g82
I1
ssg83
g5534
sg76
(lp5541
S'http://www.web2py.com/book'
p5542
asbasbasbag69
(g85
g71
NtRp5543
(dp5544
g74
(dp5545
sg83
g5501
sg76
(lp5546
g69
(g90
g71
NtRp5547
(dp5548
g74
(dp5549
sg83
g5543
sg76
(lp5550
g69
(g70
g71
NtRp5551
(dp5552
g74
(dp5553
g82
I1
ssg83
g5547
sg76
(lp5554
(lp5555
(g5132
(S't\x07\x00\x00\x00Preface'
tRp5556
I00
S'http://www.web2py.com/book/default/chapter/00'
p5557
tp5558
a(g5132
(S't\x0c\x00\x00\x00Introduction'
tRp5559
I00
S'http://www.web2py.com/book/default/chapter/01'
p5560
tp5561
a(g5132
(S't\x06\x00\x00\x00Python'
tRp5562
I00
S'http://www.web2py.com/book/default/chapter/02'
p5563
tp5564
a(g5132
(S't\x08\x00\x00\x00Overview'
tRp5565
I00
S'http://www.web2py.com/book/default/chapter/03'
p5566
tp5567
a(g5132
(S's\x08\x00\x00\x00The Core'
tRp5568
I00
S'http://www.web2py.com/book/default/chapter/04'
p5569
tp5570
a(g5132
(S's\t\x00\x00\x00The Views'
tRp5571
I00
S'http://www.web2py.com/book/default/chapter/05'
p5572
tp5573
a(g5132
(S't\x08\x00\x00\x00Database'
tRp5574
I00
S'http://www.web2py.com/book/default/chapter/06'
p5575
tp5576
a(g5132
(S's\x14\x00\x00\x00Forms and Validators'
tRp5577
I00
S'http://www.web2py.com/book/default/chapter/07'
p5578
tp5579
a(g5132
(S's\r\x00\x00\x00Email and SMS'
tRp5580
I00
S'http://www.web2py.com/book/default/chapter/08'
p5581
tp5582
a(g5132
(S's\x0e\x00\x00\x00Access Control'
tRp5583
I00
S'http://www.web2py.com/book/default/chapter/09'
p5584
tp5585
a(g5132
(S't\x08\x00\x00\x00Services'
tRp5586
I00
S'http://www.web2py.com/book/default/chapter/10'
p5587
tp5588
a(g5132
(S's\x0c\x00\x00\x00Ajax Recipes'
tRp5589
I00
S'http://www.web2py.com/book/default/chapter/11'
p5590
tp5591
a(g5132
(S's\x16\x00\x00\x00Components and Plugins'
tRp5592
I00
S'http://www.web2py.com/book/default/chapter/12'
p5593
tp5594
a(g5132
(S's\x12\x00\x00\x00Deployment Recipes'
tRp5595
I00
S'http://www.web2py.com/book/default/chapter/13'
p5596
tp5597
a(g5132
(S's\r\x00\x00\x00Other Recipes'
tRp5598
I00
S'http://www.web2py.com/book/default/chapter/14'
p5599
tp5600
a(g5132
(S's\r\x00\x00\x00Buy this book'
tRp5601
I00
S'http://stores.lulu.com/web2py'
p5602
tp5603
aasbasbasbasbasbasbasbag69
(g85
g71
NtRp5604
(dp5605
g74
(dp5606
sg83
g5246
sg76
(lp5607
g69
(g90
g71
NtRp5608
(dp5609
g74
(dp5610
sg83
g5604
sg76
(lp5611
g69
(g70
g71
NtRp5612
(dp5613
g74
(dp5614
g82
I2
ssg83
g5608
sg76
(lp5615
g69
(g78
g71
NtRp5616
(dp5617
g74
(dp5618
g82
I1
ssg83
Nsg76
(lp5619
g69
(g85
g71
NtRp5620
(dp5621
g74
(dp5622
sg83
g5616
sg76
(lp5623
g69
(g90
g71
NtRp5624
(dp5625
g74
(dp5626
sg83
g5620
sg76
(lp5627
g69
(g70
g71
NtRp5628
(dp5629
g74
(dp5630
g82
I1
ssg83
g5624
sg76
(lp5631
g5132
(S't\t\x00\x00\x00Community'
tRp5632
asbasbasbag69
(g85
g71
NtRp5633
(dp5634
g74
(dp5635
sg83
g5616
sg76
(lp5636
g69
(g90
g71
NtRp5637
(dp5638
g74
(dp5639
sg83
g5633
sg76
(lp5640
g69
(g70
g71
NtRp5641
(dp5642
g74
(dp5643
g82
I1
ssg83
g5637
sg76
(lp5644
I00
asbasbasbag69
(g85
g71
NtRp5645
(dp5646
g74
(dp5647
sg83
g5616
sg76
(lp5648
g69
(g90
g71
NtRp5649
(dp5650
g74
(dp5651
sg83
g5645
sg76
(lp5652
g69
(g70
g71
NtRp5653
(dp5654
g74
(dp5655
g82
I1
ssg83
g5649
sg76
(lp5656
Nasbasbasbag69
(g85
g71
NtRp5657
(dp5658
g74
(dp5659
sg83
g5616
sg76
(lp5660
g69
(g90
g71
NtRp5661
(dp5662
g74
(dp5663
sg83
g5657
sg76
(lp5664
g69
(g70
g71
NtRp5665
(dp5666
g74
(dp5667
g82
I1
ssg83
g5661
sg76
(lp5668
(lp5669
(g5132
(S't\x06\x00\x00\x00Groups'
tRp5670
I00
S'http://www.web2py.com/examples/default/usergroups'
p5671
tp5672
a(g5132
(S't\x07\x00\x00\x00Twitter'
tRp5673
I00
S'http://twitter.com/web2py'
p5674
tp5675
a(g5132
(S's\t\x00\x00\x00Live Chat'
tRp5676
I00
S'http://webchat.freenode.net/?channels=web2py'
p5677
tp5678
aasbasbasbasbasbasbasbag69
(g85
g71
NtRp5679
(dp5680
g74
(dp5681
sg83
g5246
sg76
(lp5682
g69
(g90
g71
NtRp5683
(dp5684
g74
(dp5685
sg83
g5679
sg76
(lp5686
g69
(g70
g71
NtRp5687
(dp5688
g74
(dp5689
g82
I2
ssg83
g5683
sg76
(lp5690
g69
(g78
g71
NtRp5691
(dp5692
g74
(dp5693
g82
I1
ssg83
Nsg76
(lp5694
g69
(g85
g71
NtRp5695
(dp5696
g74
(dp5697
sg83
g5691
sg76
(lp5698
g69
(g90
g71
NtRp5699
(dp5700
g74
(dp5701
sg83
g5695
sg76
(lp5702
g69
(g70
g71
NtRp5703
(dp5704
g74
(dp5705
g82
I1
ssg83
g5699
sg76
(lp5706
g5132
(S't\x07\x00\x00\x00Plugins'
tRp5707
asbasbasbag69
(g85
g71
NtRp5708
(dp5709
g74
(dp5710
sg83
g5691
sg76
(lp5711
g69
(g90
g71
NtRp5712
(dp5713
g74
(dp5714
sg83
g5708
sg76
(lp5715
g69
(g70
g71
NtRp5716
(dp5717
g74
(dp5718
g82
I1
ssg83
g5712
sg76
(lp5719
I00
asbasbasbag69
(g85
g71
NtRp5720
(dp5721
g74
(dp5722
sg83
g5691
sg76
(lp5723
g69
(g90
g71
NtRp5724
(dp5725
g74
(dp5726
sg83
g5720
sg76
(lp5727
g69
(g70
g71
NtRp5728
(dp5729
g74
(dp5730
g82
I1
ssg83
g5724
sg76
(lp5731
Nasbasbasbag69
(g85
g71
NtRp5732
(dp5733
g74
(dp5734
sg83
g5691
sg76
(lp5735
g69
(g90
g71
NtRp5736
(dp5737
g74
(dp5738
sg83
g5732
sg76
(lp5739
g69
(g70
g71
NtRp5740
(dp5741
g74
(dp5742
g82
I1
ssg83
g5736
sg76
(lp5743
(lp5744
(S'plugin_wiki'
p5745
I00
S'http://web2py.com/examples/default/download'
p5746
tp5747
a(g5132
(S's\r\x00\x00\x00Other Plugins'
tRp5748
I00
g5478
tp5749
a(g5132
(S's\x0e\x00\x00\x00Layout Plugins'
tRp5750
I00
g5481
tp5751
aasbasbasbasbasbasbasbasbasbasbasbasbasbasbasbasbasbasbasbag69
(g85
g71
NtRp5752
(dp5753
g74
(dp5754
sg83
g4627
sg76
(lp5755
g69
(g90
g71
NtRp5756
(dp5757
g74
(dp5758
g94
g95
ssg83
g5752
sg76
(lp5759
S'meta'
p5760
asbag69
(g90
g71
NtRp5761
(dp5762
g74
(dp5763
g101
g102
ssg83
g5752
sg76
(lp5764
S':'
asbag69
(g90
g71
NtRp5765
(dp5766
g74
(dp5767
sg83
g5752
sg76
(lp5768
g69
(g70
g71
NtRp5769
(dp5770
g74
(dp5771
g82
I5
ssg83
g5765
sg76
(lp5772
g69
(g78
g71
NtRp5773
(dp5774
g74
(dp5775
g82
I4
ssg83
Nsg76
(lp5776
g69
(g85
g71
NtRp5777
(dp5778
g74
(dp5779
sg83
g5773
sg76
(lp5780
g69
(g90
g71
NtRp5781
(dp5782
g74
(dp5783
g94
g95
ssg83
g5777
sg76
(lp5784
S'author'
p5785
asbag69
(g90
g71
NtRp5786
(dp5787
g74
(dp5788
g101
g102
ssg83
g5777
sg76
(lp5789
S':'
asbag69
(g90
g71
NtRp5790
(dp5791
g74
(dp5792
sg83
g5777
sg76
(lp5793
g69
(g70
g71
NtRp5794
(dp5795
g74
(dp5796
g82
I4
ssg83
g5790
sg76
(lp5797
S'Your Name <you@example.com>'
p5798
asbasbasbag69
(g85
g71
NtRp5799
(dp5800
g74
(dp5801
sg83
g5773
sg76
(lp5802
g69
(g90
g71
NtRp5803
(dp5804
g74
(dp5805
g94
g95
ssg83
g5799
sg76
(lp5806
S'copyright'
p5807
asbag69
(g90
g71
NtRp5808
(dp5809
g74
(dp5810
g101
g102
ssg83
g5799
sg76
(lp5811
S':'
asbag69
(g90
g71
NtRp5812
(dp5813
g74
(dp5814
sg83
g5799
sg76
(lp5815
g69
(g70
g71
NtRp5816
(dp5817
g74
(dp5818
g82
I4
ssg83
g5812
sg76
(lp5819
S'Copyright 2011'
p5820
asbasbasbag69
(g85
g71
NtRp5821
(dp5822
g74
(dp5823
sg83
g5773
sg76
(lp5824
g69
(g90
g71
NtRp5825
(dp5826
g74
(dp5827
g94
g95
ssg83
g5821
sg76
(lp5828
S'description'
p5829
asbag69
(g90
g71
NtRp5830
(dp5831
g74
(dp5832
g101
g102
ssg83
g5821
sg76
(lp5833
S':'
asbag69
(g90
g71
NtRp5834
(dp5835
g74
(dp5836
sg83
g5821
sg76
(lp5837
g69
(g70
g71
NtRp5838
(dp5839
g74
(dp5840
g82
I4
ssg83
g5834
sg76
(lp5841
S'a cool new app'
p5842
asbasbasbag69
(g85
g71
NtRp5843
(dp5844
g74
(dp5845
sg83
g5773
sg76
(lp5846
g69
(g90
g71
NtRp5847
(dp5848
g74
(dp5849
g94
g95
ssg83
g5843
sg76
(lp5850
S'generator'
p5851
asbag69
(g90
g71
NtRp5852
(dp5853
g74
(dp5854
g101
g102
ssg83
g5843
sg76
(lp5855
S':'
asbag69
(g90
g71
NtRp5856
(dp5857
g74
(dp5858
sg83
g5843
sg76
(lp5859
g69
(g70
g71
NtRp5860
(dp5861
g74
(dp5862
g82
I4
ssg83
g5856
sg76
(lp5863
S'Web2py Web Framework'
p5864
asbasbasbag69
(g85
g71
NtRp5865
(dp5866
g74
(dp5867
sg83
g5773
sg76
(lp5868
g69
(g90
g71
NtRp5869
(dp5870
g74
(dp5871
g94
g95
ssg83
g5865
sg76
(lp5872
S'keywords'
p5873
asbag69
(g90
g71
NtRp5874
(dp5875
g74
(dp5876
g101
g102
ssg83
g5865
sg76
(lp5877
S':'
asbag69
(g90
g71
NtRp5878
(dp5879
g74
(dp5880
sg83
g5865
sg76
(lp5881
g69
(g70
g71
NtRp5882
(dp5883
g74
(dp5884
g82
I4
ssg83
g5878
sg76
(lp5885
S'web2py, python, framework'
p5886
asbasbasbasbasbasbasbag69
(g85
g71
NtRp5887
(dp5888
g74
(dp5889
sg83
g4627
sg76
(lp5890
g69
(g90
g71
NtRp5891
(dp5892
g74
(dp5893
g94
g95
ssg83
g5887
sg76
(lp5894
S'postprocessing'
p5895
asbag69
(g90
g71
NtRp5896
(dp5897
g74
(dp5898
g101
g102
ssg83
g5887
sg76
(lp5899
S':'
asbag69
(g90
g71
NtRp5900
(dp5901
g74
(dp5902
sg83
g5887
sg76
(lp5903
g69
(g70
g71
NtRp5904
(dp5905
g74
(dp5906
g82
I5
ssg83
g5900
sg76
(lp5907
g69
(g78
g71
NtRp5908
(dp5909
g74
(dp5910
g82
I4
ssg83
Nsg76
(lp5911
sbasbasbasbag69
(g85
g71
NtRp5912
(dp5913
g74
(dp5914
sg83
g4627
sg76
(lp5915
g69
(g90
g71
NtRp5916
(dp5917
g74
(dp5918
g94
g95
ssg83
g5912
sg76
(lp5919
S'session_file'
p5920
asbag69
(g90
g71
NtRp5921
(dp5922
g74
(dp5923
g101
g102
ssg83
g5912
sg76
(lp5924
S':'
asbag69
(g90
g71
NtRp5925
(dp5926
g74
(dp5927
sg83
g5912
sg76
(lp5928
g69
(g70
g71
NtRp5929
(dp5930
g74
(dp5931
g82
I5
ssg83
g5925
sg76
(lp5932
S"<open file '/home/ian/web2py/applications/blog/sessions/127.0.0.1-448ebfff-1985-4742-b850-118a78702f09', mode 'rb+' at 0x276c030>"
p5933
asbasbasbag69
(g85
g71
NtRp5934
(dp5935
g74
(dp5936
sg83
g4627
sg76
(lp5937
g69
(g90
g71
NtRp5938
(dp5939
g74
(dp5940
g94
g95
ssg83
g5934
sg76
(lp5941
S'session_filename'
p5942
asbag69
(g90
g71
NtRp5943
(dp5944
g74
(dp5945
g101
g102
ssg83
g5934
sg76
(lp5946
S':'
asbag69
(g90
g71
NtRp5947
(dp5948
g74
(dp5949
sg83
g5934
sg76
(lp5950
g69
(g70
g71
NtRp5951
(dp5952
g74
(dp5953
g82
I5
ssg83
g5947
sg76
(lp5954
S'/home/ian/web2py/applications/blog/sessions/127.0.0.1-448ebfff-1985-4742-b850-118a78702f09'
p5955
asbasbasbag69
(g85
g71
NtRp5956
(dp5957
g74
(dp5958
sg83
g4627
sg76
(lp5959
g69
(g90
g71
NtRp5960
(dp5961
g74
(dp5962
g94
g95
ssg83
g5956
sg76
(lp5963
S'session_id'
p5964
asbag69
(g90
g71
NtRp5965
(dp5966
g74
(dp5967
g101
g102
ssg83
g5956
sg76
(lp5968
S':'
asbag69
(g90
g71
NtRp5969
(dp5970
g74
(dp5971
sg83
g5956
sg76
(lp5972
g69
(g70
g71
NtRp5973
(dp5974
g74
(dp5975
g82
I5
ssg83
g5969
sg76
(lp5976
S'127.0.0.1-448ebfff-1985-4742-b850-118a78702f09'
p5977
asbasbasbag69
(g85
g71
NtRp5978
(dp5979
g74
(dp5980
sg83
g4627
sg76
(lp5981
g69
(g90
g71
NtRp5982
(dp5983
g74
(dp5984
g94
g95
ssg83
g5978
sg76
(lp5985
S'session_id_name'
p5986
asbag69
(g90
g71
NtRp5987
(dp5988
g74
(dp5989
g101
g102
ssg83
g5978
sg76
(lp5990
S':'
asbag69
(g90
g71
NtRp5991
(dp5992
g74
(dp5993
sg83
g5978
sg76
(lp5994
g69
(g70
g71
NtRp5995
(dp5996
g74
(dp5997
g82
I5
ssg83
g5991
sg76
(lp5998
g4684
asbasbasbag69
(g85
g71
NtRp5999
(dp6000
g74
(dp6001
sg83
g4627
sg76
(lp6002
g69
(g90
g71
NtRp6003
(dp6004
g74
(dp6005
g94
g95
ssg83
g5999
sg76
(lp6006
S'session_locked'
p6007
asbag69
(g90
g71
NtRp6008
(dp6009
g74
(dp6010
g101
g102
ssg83
g5999
sg76
(lp6011
S':'
asbag69
(g90
g71
NtRp6012
(dp6013
g74
(dp6014
sg83
g5999
sg76
(lp6015
g69
(g70
g71
NtRp6016
(dp6017
g74
(dp6018
g82
I5
ssg83
g6012
sg76
(lp6019
g112
asbasbasbag69
(g85
g71
NtRp6020
(dp6021
g74
(dp6022
sg83
g4627
sg76
(lp6023
g69
(g90
g71
NtRp6024
(dp6025
g74
(dp6026
g94
g95
ssg83
g6020
sg76
(lp6027
S'session_new'
p6028
asbag69
(g90
g71
NtRp6029
(dp6030
g74
(dp6031
g101
g102
ssg83
g6020
sg76
(lp6032
S':'
asbag69
(g90
g71
NtRp6033
(dp6034
g74
(dp6035
sg83
g6020
sg76
(lp6036
g69
(g70
g71
NtRp6037
(dp6038
g74
(dp6039
g82
I5
ssg83
g6033
sg76
(lp6040
g1593
asbasbasbag69
(g85
g71
NtRp6041
(dp6042
g74
(dp6043
sg83
g4627
sg76
(lp6044
g69
(g90
g71
NtRp6045
(dp6046
g74
(dp6047
g94
g95
ssg83
g6041
sg76
(lp6048
S'status'
p6049
asbag69
(g90
g71
NtRp6050
(dp6051
g74
(dp6052
g101
g102
ssg83
g6041
sg76
(lp6053
S':'
asbag69
(g90
g71
NtRp6054
(dp6055
g74
(dp6056
sg83
g6041
sg76
(lp6057
g69
(g70
g71
NtRp6058
(dp6059
g74
(dp6060
g82
I5
ssg83
g6054
sg76
(lp6061
S'200'
p6062
asbasbasbag69
(g85
g71
NtRp6063
(dp6064
g74
(dp6065
sg83
g4627
sg76
(lp6066
g69
(g90
g71
NtRp6067
(dp6068
g74
(dp6069
g94
g95
ssg83
g6063
sg76
(lp6070
S'subtitle'
p6071
asbag69
(g90
g71
NtRp6072
(dp6073
g74
(dp6074
g101
g102
ssg83
g6063
sg76
(lp6075
S':'
asbag69
(g90
g71
NtRp6076
(dp6077
g74
(dp6078
sg83
g6063
sg76
(lp6079
g69
(g70
g71
NtRp6080
(dp6081
g74
(dp6082
g82
I5
ssg83
g6076
sg76
(lp6083
g5132
(S's\r\x00\x00\x00customize me!'
tRp6084
asbasbasbag69
(g85
g71
NtRp6085
(dp6086
g74
(dp6087
sg83
g4627
sg76
(lp6088
g69
(g90
g71
NtRp6089
(dp6090
g74
(dp6091
g94
g95
ssg83
g6085
sg76
(lp6092
S'title'
p6093
asbag69
(g90
g71
NtRp6094
(dp6095
g74
(dp6096
g101
g102
ssg83
g6085
sg76
(lp6097
S':'
asbag69
(g90
g71
NtRp6098
(dp6099
g74
(dp6100
sg83
g6085
sg76
(lp6101
g69
(g70
g71
NtRp6102
(dp6103
g74
(dp6104
g82
I5
ssg83
g6098
sg76
(lp6105
S'Blog'
p6106
asbasbasbag69
(g85
g71
NtRp6107
(dp6108
g74
(dp6109
sg83
g4627
sg76
(lp6110
g69
(g90
g71
NtRp6111
(dp6112
g74
(dp6113
g94
g95
ssg83
g6107
sg76
(lp6114
g3190
asbag69
(g90
g71
NtRp6115
(dp6116
g74
(dp6117
g101
g102
ssg83
g6107
sg76
(lp6118
S':'
asbag69
(g90
g71
NtRp6119
(dp6120
g74
(dp6121
sg83
g6107
sg76
(lp6122
g69
(g70
g71
NtRp6123
(dp6124
g74
(dp6125
g82
I5
ssg83
g6119
sg76
(lp6126
g3203
asbasbasbag69
(g85
g71
NtRp6127
(dp6128
g74
(dp6129
sg83
g4627
sg76
(lp6130
g69
(g90
g71
NtRp6131
(dp6132
g74
(dp6133
g94
g95
ssg83
g6127
sg76
(lp6134
S'view'
p6135
asbag69
(g90
g71
NtRp6136
(dp6137
g74
(dp6138
g101
g102
ssg83
g6127
sg76
(lp6139
S':'
asbag69
(g90
g71
NtRp6140
(dp6141
g74
(dp6142
sg83
g6127
sg76
(lp6143
g69
(g70
g71
NtRp6144
(dp6145
g74
(dp6146
g82
I5
ssg83
g6140
sg76
(lp6147
S'plugin_comments/post.load'
p6148
asbasbasbasbasbsS'locals'
p6149
(dp6150
S'name'
p6151
S"'filter'"
p6152
sS'fields'
p6153
S"{'body': 'a witty comment', 'filter': '', 'posted_by': 2, 'posted_on': datetime.datetime(2012, 1, 31, 21, 42, 38, 219126)}"
p6154
sS'self'
p6155
S"<Table {'body': <gluon.dal.Field object at 0x25d...sted_on': <gluon.dal.Field object at 0x25d0490>}>"
p6156
sS'update'
p6157
g1593
sS'new_fields_names'
p6158
S'[]'
p6159
sS'new_fields'
p6160
S'[]'
p6161
sssS'traceback'
p6162
S'Traceback (most recent call last):\n  File "/home/ian/web2py/gluon/restricted.py", line 204, in restricted\n    exec ccode in environment\n  File "/home/ian/web2py/applications/blog/controllers/plugin_comments.py", line 33, in <module>\n  File "/home/ian/web2py/gluon/globals.py", line 172, in <lambda>\n    self._caller = lambda f: f()\n  File "/home/ian/web2py/applications/blog/controllers/plugin_comments.py", line 23, in post\n    if form.process(onvalidation = checkfilter).accepted:\n  File "/home/ian/web2py/gluon/html.py", line 1951, in process\n    self.validate(**kwargs)\n  File "/home/ian/web2py/gluon/html.py", line 1898, in validate\n    if self.accepts(**kwargs):\n  File "/home/ian/web2py/gluon/sqlhtml.py", line 1267, in accepts\n    self.vars.id = self.table.insert(**fields)\n  File "/home/ian/web2py/gluon/dal.py", line 5597, in insert\n    return self._db._adapter.insert(self,self._listify(fields))\n  File "/home/ian/web2py/gluon/dal.py", line 5573, in _listify\n    raise SyntaxError, \'Field %s does not belong to the table\' % name\nSyntaxError: Field filter does not belong to the table\n'
p6163
s.