(dp1
S'output'
p2
S"<type 'exceptions.ValueError'> unsupported format character 'D' (0x44) at index 65"
p3
sS'layer'
p4
S'/home/ian/web2py/applications/blog/controllers/default.py'
p5
sS'code'
p6
S'# -*- coding: utf-8 -*-\n# this file is released under public domain and you can use without limitations\n\n#########################################################################\n## This is a samples controller\n## - index is the default action of any application\n## - user is required for authentication and authorization\n## - download is for downloading files uploaded in the db (does streaming)\n## - call exposes all registered services (none by default)\n#########################################################################\n\ndef index():\n    """\n    example action using the internationalization operator T and flash\n    rendered by views/default/index.html or views/generic.html\n    """\n    response.flash = "Welcome to web2py!"\n    return dict(message=T(\'Hello World\'))\n\ndef user():\n    """\n    exposes:\n    http://..../[app]/default/user/login\n    http://..../[app]/default/user/logout\n    http://..../[app]/default/user/register\n    http://..../[app]/default/user/profile\n    http://..../[app]/default/user/retrieve_password\n    http://..../[app]/default/user/change_password\n    use @auth.requires_login()\n        @auth.requires_membership(\'group name\')\n        @auth.requires_permission(\'read\',\'table name\',record_id)\n    to decorate functions that need access control\n    """\n    return dict(form=auth())\n\n\ndef download():\n    """\n    allows downloading of uploaded files\n    http://..../[app]/default/download/[filename]\n    """\n    return response.download(request,db)\n\n\ndef call():\n    """\n    exposes services. for example:\n    http://..../[app]/default/call/jsonrpc\n    decorate with @services.jsonrpc the functions to expose\n    supports xml, json, xmlrpc, jsonrpc, amfrpc, rss, csv\n    """\n    return service()\n\n\n@auth.requires_signature()\ndef data():\n    """\n    http://..../[app]/default/data/tables\n    http://..../[app]/default/data/create/[table]\n    http://..../[app]/default/data/read/[table]/[id]\n    http://..../[app]/default/data/update/[table]/[id]\n    http://..../[app]/default/data/delete/[table]/[id]\n    http://..../[app]/default/data/select/[table]\n    http://..../[app]/default/data/search/[table]\n    but URLs must be signed, i.e. linked with\n      A(\'table\',_href=URL(\'data/tables\',user_signature=True))\n    or with the signed load operator\n      LOAD(\'default\',\'data.load\',args=\'tables\',ajax=True,user_signature=True)\n    """\n    return dict(form=crud())\n\n\nresponse._vars=response._caller(user)\n'
p7
sS'snapshot'
p8
(dp9
S'exception'
p10
(dp11
S'__hash__'
p12
S"<method-wrapper '__hash__' of exceptions.ValueError object>"
p13
sS'__setattr__'
p14
S"<method-wrapper '__setattr__' of exceptions.ValueError object>"
p15
sS'__reduce_ex__'
p16
S'<built-in method __reduce_ex__ of exceptions.ValueError object>'
p17
sS'__getslice__'
p18
S"<method-wrapper '__getslice__' of exceptions.ValueError object>"
p19
sS'__getitem__'
p20
S"<method-wrapper '__getitem__' of exceptions.ValueError object>"
p21
sS'__setstate__'
p22
S'<built-in method __setstate__ of exceptions.ValueError object>'
p23
sS'args'
p24
S'("unsupported format character \'D\' (0x44) at index 65",)'
p25
sS'__reduce__'
p26
S'<built-in method __reduce__ of exceptions.ValueError object>'
p27
sS'__str__'
p28
S"<method-wrapper '__str__' of exceptions.ValueError object>"
p29
sS'__format__'
p30
S'<built-in method __format__ of exceptions.ValueError object>'
p31
sS'__getattribute__'
p32
S"<method-wrapper '__getattribute__' of exceptions.ValueError object>"
p33
sS'__class__'
p34
S"<type 'exceptions.ValueError'>"
p35
sS'__unicode__'
p36
S'<built-in method __unicode__ of exceptions.ValueError object>'
p37
sS'__delattr__'
p38
S"<method-wrapper '__delattr__' of exceptions.ValueError object>"
p39
sS'__subclasshook__'
p40
S'<built-in method __subclasshook__ of type object>'
p41
sS'__repr__'
p42
S"<method-wrapper '__repr__' of exceptions.ValueError object>"
p43
sS'__dict__'
p44
S'{}'
p45
sS'__sizeof__'
p46
S'<built-in method __sizeof__ of exceptions.ValueError object>'
p47
sS'__doc__'
p48
S"'Inappropriate argument value (of correct type).'"
p49
sS'__init__'
p50
S"<method-wrapper '__init__' of exceptions.ValueError object>"
p51
sS'__new__'
p52
S'<built-in method __new__ of type object>'
p53
ssS'evalue'
p54
S"unsupported format character 'D' (0x44) at index 65"
p55
sS'request'
p56
ccopy_reg
_reconstructor
p57
(cgluon.html
BEAUTIFY
p58
c__builtin__
object
p59
NtRp60
(dp61
S'attributes'
p62
(dp63
sS'components'
p64
(lp65
g57
(cgluon.html
TABLE
p66
g59
NtRp67
(dp68
g62
(dp69
S'level'
p70
I5
ssS'parent'
p71
Nsg64
(lp72
g57
(cgluon.html
TR
p73
g59
NtRp74
(dp75
g62
(dp76
sg71
g67
sg64
(lp77
g57
(cgluon.html
TD
p78
g59
NtRp79
(dp80
g62
(dp81
S'_style'
p82
S'font-weight:bold;vertical-align:top'
p83
ssg71
g74
sg64
(lp84
S'ajax'
p85
asbag57
(g78
g59
NtRp86
(dp87
g62
(dp88
S'_valign'
p89
S'top'
p90
ssg71
g74
sg64
(lp91
S':'
asbag57
(g78
g59
NtRp92
(dp93
g62
(dp94
sg71
g74
sg64
(lp95
g57
(g58
g59
NtRp96
(dp97
g62
(dp98
g70
I5
ssg71
g92
sg64
(lp99
S'False'
p100
asbasbasbag57
(g73
g59
NtRp101
(dp102
g62
(dp103
sg71
g67
sg64
(lp104
g57
(g78
g59
NtRp105
(dp106
g62
(dp107
g82
g83
ssg71
g101
sg64
(lp108
S'application'
p109
asbag57
(g78
g59
NtRp110
(dp111
g62
(dp112
g89
g90
ssg71
g101
sg64
(lp113
S':'
asbag57
(g78
g59
NtRp114
(dp115
g62
(dp116
sg71
g101
sg64
(lp117
g57
(g58
g59
NtRp118
(dp119
g62
(dp120
g70
I5
ssg71
g114
sg64
(lp121
S'blog'
p122
asbasbasbag57
(g73
g59
NtRp123
(dp124
g62
(dp125
sg71
g67
sg64
(lp126
g57
(g78
g59
NtRp127
(dp128
g62
(dp129
g82
g83
ssg71
g123
sg64
(lp130
g24
asbag57
(g78
g59
NtRp131
(dp132
g62
(dp133
g89
g90
ssg71
g123
sg64
(lp134
S':'
asbag57
(g78
g59
NtRp135
(dp136
g62
(dp137
sg71
g123
sg64
(lp138
g57
(g58
g59
NtRp139
(dp140
g62
(dp141
g70
I5
ssg71
g135
sg64
(lp142
g57
(g66
g59
NtRp143
(dp144
g62
(dp145
g70
I4
ssg71
Nsg64
(lp146
g57
(g73
g59
NtRp147
(dp148
g62
(dp149
sg71
g143
sg64
(lp150
g57
(g78
g59
NtRp151
(dp152
g62
(dp153
sg71
g147
sg64
(lp154
g57
(g58
g59
NtRp155
(dp156
g62
(dp157
g70
I4
ssg71
g151
sg64
(lp158
S'register'
p159
asbasbasbasbasbasbasbag57
(g73
g59
NtRp160
(dp161
g62
(dp162
sg71
g67
sg64
(lp163
g57
(g78
g59
NtRp164
(dp165
g62
(dp166
g82
g83
ssg71
g160
sg64
(lp167
S'body'
p168
asbag57
(g78
g59
NtRp169
(dp170
g62
(dp171
g89
g90
ssg71
g160
sg64
(lp172
S':'
asbag57
(g78
g59
NtRp173
(dp174
g62
(dp175
sg71
g160
sg64
(lp176
g57
(g58
g59
NtRp177
(dp178
g62
(dp179
g70
I5
ssg71
g173
sg64
(lp180
S"<open file '<fdopen>', mode 'w+b' at 0x1ac5c00>"
p181
asbasbasbag57
(g73
g59
NtRp182
(dp183
g62
(dp184
sg71
g67
sg64
(lp185
g57
(g78
g59
NtRp186
(dp187
g62
(dp188
g82
g83
ssg71
g182
sg64
(lp189
S'client'
p190
asbag57
(g78
g59
NtRp191
(dp192
g62
(dp193
g89
g90
ssg71
g182
sg64
(lp194
S':'
asbag57
(g78
g59
NtRp195
(dp196
g62
(dp197
sg71
g182
sg64
(lp198
g57
(g58
g59
NtRp199
(dp200
g62
(dp201
g70
I5
ssg71
g195
sg64
(lp202
S'127.0.0.1'
p203
asbasbasbag57
(g73
g59
NtRp204
(dp205
g62
(dp206
sg71
g67
sg64
(lp207
g57
(g78
g59
NtRp208
(dp209
g62
(dp210
g82
g83
ssg71
g204
sg64
(lp211
S'controller'
p212
asbag57
(g78
g59
NtRp213
(dp214
g62
(dp215
g89
g90
ssg71
g204
sg64
(lp216
S':'
asbag57
(g78
g59
NtRp217
(dp218
g62
(dp219
sg71
g204
sg64
(lp220
g57
(g58
g59
NtRp221
(dp222
g62
(dp223
g70
I5
ssg71
g217
sg64
(lp224
S'default'
p225
asbasbasbag57
(g73
g59
NtRp226
(dp227
g62
(dp228
sg71
g67
sg64
(lp229
g57
(g78
g59
NtRp230
(dp231
g62
(dp232
g82
g83
ssg71
g226
sg64
(lp233
S'cookies'
p234
asbag57
(g78
g59
NtRp235
(dp236
g62
(dp237
g89
g90
ssg71
g226
sg64
(lp238
S':'
asbag57
(g78
g59
NtRp239
(dp240
g62
(dp241
sg71
g226
sg64
(lp242
g57
(g58
g59
NtRp243
(dp244
g62
(dp245
g70
I5
ssg71
g239
sg64
(lp246
g57
(g66
g59
NtRp247
(dp248
g62
(dp249
g70
I4
ssg71
Nsg64
(lp250
g57
(g73
g59
NtRp251
(dp252
g62
(dp253
sg71
g247
sg64
(lp254
g57
(g78
g59
NtRp255
(dp256
g62
(dp257
g82
g83
ssg71
g251
sg64
(lp258
S'session_id_admin'
p259
asbag57
(g78
g59
NtRp260
(dp261
g62
(dp262
g89
g90
ssg71
g251
sg64
(lp263
S':'
asbag57
(g78
g59
NtRp264
(dp265
g62
(dp266
sg71
g251
sg64
(lp267
g57
(g58
g59
NtRp268
(dp269
g62
(dp270
g70
I4
ssg71
g264
sg64
(lp271
g57
(g66
g59
NtRp272
(dp273
g62
(dp274
g70
I3
ssg71
Nsg64
(lp275
g57
(g73
g59
NtRp276
(dp277
g62
(dp278
sg71
g272
sg64
(lp279
g57
(g78
g59
NtRp280
(dp281
g62
(dp282
g82
g83
ssg71
g276
sg64
(lp283
S'comment'
p284
asbag57
(g78
g59
NtRp285
(dp286
g62
(dp287
g89
g90
ssg71
g276
sg64
(lp288
S':'
asbag57
(g78
g59
NtRp289
(dp290
g62
(dp291
sg71
g276
sg64
(lp292
g57
(g58
g59
NtRp293
(dp294
g62
(dp295
g70
I3
ssg71
g289
sg64
(lp296
S''
asbasbasbag57
(g73
g59
NtRp297
(dp298
g62
(dp299
sg71
g272
sg64
(lp300
g57
(g78
g59
NtRp301
(dp302
g62
(dp303
g82
g83
ssg71
g297
sg64
(lp304
S'domain'
p305
asbag57
(g78
g59
NtRp306
(dp307
g62
(dp308
g89
g90
ssg71
g297
sg64
(lp309
S':'
asbag57
(g78
g59
NtRp310
(dp311
g62
(dp312
sg71
g297
sg64
(lp313
g57
(g58
g59
NtRp314
(dp315
g62
(dp316
g70
I3
ssg71
g310
sg64
(lp317
S''
asbasbasbag57
(g73
g59
NtRp318
(dp319
g62
(dp320
sg71
g272
sg64
(lp321
g57
(g78
g59
NtRp322
(dp323
g62
(dp324
g82
g83
ssg71
g318
sg64
(lp325
S'expires'
p326
asbag57
(g78
g59
NtRp327
(dp328
g62
(dp329
g89
g90
ssg71
g318
sg64
(lp330
S':'
asbag57
(g78
g59
NtRp331
(dp332
g62
(dp333
sg71
g318
sg64
(lp334
g57
(g58
g59
NtRp335
(dp336
g62
(dp337
g70
I3
ssg71
g331
sg64
(lp338
S''
asbasbasbag57
(g73
g59
NtRp339
(dp340
g62
(dp341
sg71
g272
sg64
(lp342
g57
(g78
g59
NtRp343
(dp344
g62
(dp345
g82
g83
ssg71
g339
sg64
(lp346
S'httponly'
p347
asbag57
(g78
g59
NtRp348
(dp349
g62
(dp350
g89
g90
ssg71
g339
sg64
(lp351
S':'
asbag57
(g78
g59
NtRp352
(dp353
g62
(dp354
sg71
g339
sg64
(lp355
g57
(g58
g59
NtRp356
(dp357
g62
(dp358
g70
I3
ssg71
g352
sg64
(lp359
S''
asbasbasbag57
(g73
g59
NtRp360
(dp361
g62
(dp362
sg71
g272
sg64
(lp363
g57
(g78
g59
NtRp364
(dp365
g62
(dp366
g82
g83
ssg71
g360
sg64
(lp367
S'max-age'
p368
asbag57
(g78
g59
NtRp369
(dp370
g62
(dp371
g89
g90
ssg71
g360
sg64
(lp372
S':'
asbag57
(g78
g59
NtRp373
(dp374
g62
(dp375
sg71
g360
sg64
(lp376
g57
(g58
g59
NtRp377
(dp378
g62
(dp379
g70
I3
ssg71
g373
sg64
(lp380
S''
asbasbasbag57
(g73
g59
NtRp381
(dp382
g62
(dp383
sg71
g272
sg64
(lp384
g57
(g78
g59
NtRp385
(dp386
g62
(dp387
g82
g83
ssg71
g381
sg64
(lp388
S'path'
p389
asbag57
(g78
g59
NtRp390
(dp391
g62
(dp392
g89
g90
ssg71
g381
sg64
(lp393
S':'
asbag57
(g78
g59
NtRp394
(dp395
g62
(dp396
sg71
g381
sg64
(lp397
g57
(g58
g59
NtRp398
(dp399
g62
(dp400
g70
I3
ssg71
g394
sg64
(lp401
S''
asbasbasbag57
(g73
g59
NtRp402
(dp403
g62
(dp404
sg71
g272
sg64
(lp405
g57
(g78
g59
NtRp406
(dp407
g62
(dp408
g82
g83
ssg71
g402
sg64
(lp409
S'secure'
p410
asbag57
(g78
g59
NtRp411
(dp412
g62
(dp413
g89
g90
ssg71
g402
sg64
(lp414
S':'
asbag57
(g78
g59
NtRp415
(dp416
g62
(dp417
sg71
g402
sg64
(lp418
g57
(g58
g59
NtRp419
(dp420
g62
(dp421
g70
I3
ssg71
g415
sg64
(lp422
S''
asbasbasbag57
(g73
g59
NtRp423
(dp424
g62
(dp425
sg71
g272
sg64
(lp426
g57
(g78
g59
NtRp427
(dp428
g62
(dp429
g82
g83
ssg71
g423
sg64
(lp430
S'version'
p431
asbag57
(g78
g59
NtRp432
(dp433
g62
(dp434
g89
g90
ssg71
g423
sg64
(lp435
S':'
asbag57
(g78
g59
NtRp436
(dp437
g62
(dp438
sg71
g423
sg64
(lp439
g57
(g58
g59
NtRp440
(dp441
g62
(dp442
g70
I3
ssg71
g436
sg64
(lp443
S''
asbasbasbasbasbasbasbag57
(g73
g59
NtRp444
(dp445
g62
(dp446
sg71
g247
sg64
(lp447
g57
(g78
g59
NtRp448
(dp449
g62
(dp450
g82
g83
ssg71
g444
sg64
(lp451
S'session_id_blog'
p452
asbag57
(g78
g59
NtRp453
(dp454
g62
(dp455
g89
g90
ssg71
g444
sg64
(lp456
S':'
asbag57
(g78
g59
NtRp457
(dp458
g62
(dp459
sg71
g444
sg64
(lp460
g57
(g58
g59
NtRp461
(dp462
g62
(dp463
g70
I4
ssg71
g457
sg64
(lp464
g57
(g66
g59
NtRp465
(dp466
g62
(dp467
g70
I3
ssg71
Nsg64
(lp468
g57
(g73
g59
NtRp469
(dp470
g62
(dp471
sg71
g465
sg64
(lp472
g57
(g78
g59
NtRp473
(dp474
g62
(dp475
g82
g83
ssg71
g469
sg64
(lp476
g284
asbag57
(g78
g59
NtRp477
(dp478
g62
(dp479
g89
g90
ssg71
g469
sg64
(lp480
S':'
asbag57
(g78
g59
NtRp481
(dp482
g62
(dp483
sg71
g469
sg64
(lp484
g57
(g58
g59
NtRp485
(dp486
g62
(dp487
g70
I3
ssg71
g481
sg64
(lp488
S''
asbasbasbag57
(g73
g59
NtRp489
(dp490
g62
(dp491
sg71
g465
sg64
(lp492
g57
(g78
g59
NtRp493
(dp494
g62
(dp495
g82
g83
ssg71
g489
sg64
(lp496
g305
asbag57
(g78
g59
NtRp497
(dp498
g62
(dp499
g89
g90
ssg71
g489
sg64
(lp500
S':'
asbag57
(g78
g59
NtRp501
(dp502
g62
(dp503
sg71
g489
sg64
(lp504
g57
(g58
g59
NtRp505
(dp506
g62
(dp507
g70
I3
ssg71
g501
sg64
(lp508
S''
asbasbasbag57
(g73
g59
NtRp509
(dp510
g62
(dp511
sg71
g465
sg64
(lp512
g57
(g78
g59
NtRp513
(dp514
g62
(dp515
g82
g83
ssg71
g509
sg64
(lp516
g326
asbag57
(g78
g59
NtRp517
(dp518
g62
(dp519
g89
g90
ssg71
g509
sg64
(lp520
S':'
asbag57
(g78
g59
NtRp521
(dp522
g62
(dp523
sg71
g509
sg64
(lp524
g57
(g58
g59
NtRp525
(dp526
g62
(dp527
g70
I3
ssg71
g521
sg64
(lp528
S''
asbasbasbag57
(g73
g59
NtRp529
(dp530
g62
(dp531
sg71
g465
sg64
(lp532
g57
(g78
g59
NtRp533
(dp534
g62
(dp535
g82
g83
ssg71
g529
sg64
(lp536
g347
asbag57
(g78
g59
NtRp537
(dp538
g62
(dp539
g89
g90
ssg71
g529
sg64
(lp540
S':'
asbag57
(g78
g59
NtRp541
(dp542
g62
(dp543
sg71
g529
sg64
(lp544
g57
(g58
g59
NtRp545
(dp546
g62
(dp547
g70
I3
ssg71
g541
sg64
(lp548
S''
asbasbasbag57
(g73
g59
NtRp549
(dp550
g62
(dp551
sg71
g465
sg64
(lp552
g57
(g78
g59
NtRp553
(dp554
g62
(dp555
g82
g83
ssg71
g549
sg64
(lp556
g368
asbag57
(g78
g59
NtRp557
(dp558
g62
(dp559
g89
g90
ssg71
g549
sg64
(lp560
S':'
asbag57
(g78
g59
NtRp561
(dp562
g62
(dp563
sg71
g549
sg64
(lp564
g57
(g58
g59
NtRp565
(dp566
g62
(dp567
g70
I3
ssg71
g561
sg64
(lp568
S''
asbasbasbag57
(g73
g59
NtRp569
(dp570
g62
(dp571
sg71
g465
sg64
(lp572
g57
(g78
g59
NtRp573
(dp574
g62
(dp575
g82
g83
ssg71
g569
sg64
(lp576
g389
asbag57
(g78
g59
NtRp577
(dp578
g62
(dp579
g89
g90
ssg71
g569
sg64
(lp580
S':'
asbag57
(g78
g59
NtRp581
(dp582
g62
(dp583
sg71
g569
sg64
(lp584
g57
(g58
g59
NtRp585
(dp586
g62
(dp587
g70
I3
ssg71
g581
sg64
(lp588
S''
asbasbasbag57
(g73
g59
NtRp589
(dp590
g62
(dp591
sg71
g465
sg64
(lp592
g57
(g78
g59
NtRp593
(dp594
g62
(dp595
g82
g83
ssg71
g589
sg64
(lp596
g410
asbag57
(g78
g59
NtRp597
(dp598
g62
(dp599
g89
g90
ssg71
g589
sg64
(lp600
S':'
asbag57
(g78
g59
NtRp601
(dp602
g62
(dp603
sg71
g589
sg64
(lp604
g57
(g58
g59
NtRp605
(dp606
g62
(dp607
g70
I3
ssg71
g601
sg64
(lp608
S''
asbasbasbag57
(g73
g59
NtRp609
(dp610
g62
(dp611
sg71
g465
sg64
(lp612
g57
(g78
g59
NtRp613
(dp614
g62
(dp615
g82
g83
ssg71
g609
sg64
(lp616
g431
asbag57
(g78
g59
NtRp617
(dp618
g62
(dp619
g89
g90
ssg71
g609
sg64
(lp620
S':'
asbag57
(g78
g59
NtRp621
(dp622
g62
(dp623
sg71
g609
sg64
(lp624
g57
(g58
g59
NtRp625
(dp626
g62
(dp627
g70
I3
ssg71
g621
sg64
(lp628
S''
asbasbasbasbasbasbasbag57
(g73
g59
NtRp629
(dp630
g62
(dp631
sg71
g247
sg64
(lp632
g57
(g78
g59
NtRp633
(dp634
g62
(dp635
g82
g83
ssg71
g629
sg64
(lp636
S'session_id_grades'
p637
asbag57
(g78
g59
NtRp638
(dp639
g62
(dp640
g89
g90
ssg71
g629
sg64
(lp641
S':'
asbag57
(g78
g59
NtRp642
(dp643
g62
(dp644
sg71
g629
sg64
(lp645
g57
(g58
g59
NtRp646
(dp647
g62
(dp648
g70
I4
ssg71
g642
sg64
(lp649
g57
(g66
g59
NtRp650
(dp651
g62
(dp652
g70
I3
ssg71
Nsg64
(lp653
g57
(g73
g59
NtRp654
(dp655
g62
(dp656
sg71
g650
sg64
(lp657
g57
(g78
g59
NtRp658
(dp659
g62
(dp660
g82
g83
ssg71
g654
sg64
(lp661
g284
asbag57
(g78
g59
NtRp662
(dp663
g62
(dp664
g89
g90
ssg71
g654
sg64
(lp665
S':'
asbag57
(g78
g59
NtRp666
(dp667
g62
(dp668
sg71
g654
sg64
(lp669
g57
(g58
g59
NtRp670
(dp671
g62
(dp672
g70
I3
ssg71
g666
sg64
(lp673
S''
asbasbasbag57
(g73
g59
NtRp674
(dp675
g62
(dp676
sg71
g650
sg64
(lp677
g57
(g78
g59
NtRp678
(dp679
g62
(dp680
g82
g83
ssg71
g674
sg64
(lp681
g305
asbag57
(g78
g59
NtRp682
(dp683
g62
(dp684
g89
g90
ssg71
g674
sg64
(lp685
S':'
asbag57
(g78
g59
NtRp686
(dp687
g62
(dp688
sg71
g674
sg64
(lp689
g57
(g58
g59
NtRp690
(dp691
g62
(dp692
g70
I3
ssg71
g686
sg64
(lp693
S''
asbasbasbag57
(g73
g59
NtRp694
(dp695
g62
(dp696
sg71
g650
sg64
(lp697
g57
(g78
g59
NtRp698
(dp699
g62
(dp700
g82
g83
ssg71
g694
sg64
(lp701
g326
asbag57
(g78
g59
NtRp702
(dp703
g62
(dp704
g89
g90
ssg71
g694
sg64
(lp705
S':'
asbag57
(g78
g59
NtRp706
(dp707
g62
(dp708
sg71
g694
sg64
(lp709
g57
(g58
g59
NtRp710
(dp711
g62
(dp712
g70
I3
ssg71
g706
sg64
(lp713
S''
asbasbasbag57
(g73
g59
NtRp714
(dp715
g62
(dp716
sg71
g650
sg64
(lp717
g57
(g78
g59
NtRp718
(dp719
g62
(dp720
g82
g83
ssg71
g714
sg64
(lp721
g347
asbag57
(g78
g59
NtRp722
(dp723
g62
(dp724
g89
g90
ssg71
g714
sg64
(lp725
S':'
asbag57
(g78
g59
NtRp726
(dp727
g62
(dp728
sg71
g714
sg64
(lp729
g57
(g58
g59
NtRp730
(dp731
g62
(dp732
g70
I3
ssg71
g726
sg64
(lp733
S''
asbasbasbag57
(g73
g59
NtRp734
(dp735
g62
(dp736
sg71
g650
sg64
(lp737
g57
(g78
g59
NtRp738
(dp739
g62
(dp740
g82
g83
ssg71
g734
sg64
(lp741
g368
asbag57
(g78
g59
NtRp742
(dp743
g62
(dp744
g89
g90
ssg71
g734
sg64
(lp745
S':'
asbag57
(g78
g59
NtRp746
(dp747
g62
(dp748
sg71
g734
sg64
(lp749
g57
(g58
g59
NtRp750
(dp751
g62
(dp752
g70
I3
ssg71
g746
sg64
(lp753
S''
asbasbasbag57
(g73
g59
NtRp754
(dp755
g62
(dp756
sg71
g650
sg64
(lp757
g57
(g78
g59
NtRp758
(dp759
g62
(dp760
g82
g83
ssg71
g754
sg64
(lp761
g389
asbag57
(g78
g59
NtRp762
(dp763
g62
(dp764
g89
g90
ssg71
g754
sg64
(lp765
S':'
asbag57
(g78
g59
NtRp766
(dp767
g62
(dp768
sg71
g754
sg64
(lp769
g57
(g58
g59
NtRp770
(dp771
g62
(dp772
g70
I3
ssg71
g766
sg64
(lp773
S''
asbasbasbag57
(g73
g59
NtRp774
(dp775
g62
(dp776
sg71
g650
sg64
(lp777
g57
(g78
g59
NtRp778
(dp779
g62
(dp780
g82
g83
ssg71
g774
sg64
(lp781
g410
asbag57
(g78
g59
NtRp782
(dp783
g62
(dp784
g89
g90
ssg71
g774
sg64
(lp785
S':'
asbag57
(g78
g59
NtRp786
(dp787
g62
(dp788
sg71
g774
sg64
(lp789
g57
(g58
g59
NtRp790
(dp791
g62
(dp792
g70
I3
ssg71
g786
sg64
(lp793
S''
asbasbasbag57
(g73
g59
NtRp794
(dp795
g62
(dp796
sg71
g650
sg64
(lp797
g57
(g78
g59
NtRp798
(dp799
g62
(dp800
g82
g83
ssg71
g794
sg64
(lp801
g431
asbag57
(g78
g59
NtRp802
(dp803
g62
(dp804
g89
g90
ssg71
g794
sg64
(lp805
S':'
asbag57
(g78
g59
NtRp806
(dp807
g62
(dp808
sg71
g794
sg64
(lp809
g57
(g58
g59
NtRp810
(dp811
g62
(dp812
g70
I3
ssg71
g806
sg64
(lp813
S''
asbasbasbasbasbasbasbag57
(g73
g59
NtRp814
(dp815
g62
(dp816
sg71
g247
sg64
(lp817
g57
(g78
g59
NtRp818
(dp819
g62
(dp820
g82
g83
ssg71
g814
sg64
(lp821
S'session_id_paideia'
p822
asbag57
(g78
g59
NtRp823
(dp824
g62
(dp825
g89
g90
ssg71
g814
sg64
(lp826
S':'
asbag57
(g78
g59
NtRp827
(dp828
g62
(dp829
sg71
g814
sg64
(lp830
g57
(g58
g59
NtRp831
(dp832
g62
(dp833
g70
I4
ssg71
g827
sg64
(lp834
g57
(g66
g59
NtRp835
(dp836
g62
(dp837
g70
I3
ssg71
Nsg64
(lp838
g57
(g73
g59
NtRp839
(dp840
g62
(dp841
sg71
g835
sg64
(lp842
g57
(g78
g59
NtRp843
(dp844
g62
(dp845
g82
g83
ssg71
g839
sg64
(lp846
g284
asbag57
(g78
g59
NtRp847
(dp848
g62
(dp849
g89
g90
ssg71
g839
sg64
(lp850
S':'
asbag57
(g78
g59
NtRp851
(dp852
g62
(dp853
sg71
g839
sg64
(lp854
g57
(g58
g59
NtRp855
(dp856
g62
(dp857
g70
I3
ssg71
g851
sg64
(lp858
S''
asbasbasbag57
(g73
g59
NtRp859
(dp860
g62
(dp861
sg71
g835
sg64
(lp862
g57
(g78
g59
NtRp863
(dp864
g62
(dp865
g82
g83
ssg71
g859
sg64
(lp866
g305
asbag57
(g78
g59
NtRp867
(dp868
g62
(dp869
g89
g90
ssg71
g859
sg64
(lp870
S':'
asbag57
(g78
g59
NtRp871
(dp872
g62
(dp873
sg71
g859
sg64
(lp874
g57
(g58
g59
NtRp875
(dp876
g62
(dp877
g70
I3
ssg71
g871
sg64
(lp878
S''
asbasbasbag57
(g73
g59
NtRp879
(dp880
g62
(dp881
sg71
g835
sg64
(lp882
g57
(g78
g59
NtRp883
(dp884
g62
(dp885
g82
g83
ssg71
g879
sg64
(lp886
g326
asbag57
(g78
g59
NtRp887
(dp888
g62
(dp889
g89
g90
ssg71
g879
sg64
(lp890
S':'
asbag57
(g78
g59
NtRp891
(dp892
g62
(dp893
sg71
g879
sg64
(lp894
g57
(g58
g59
NtRp895
(dp896
g62
(dp897
g70
I3
ssg71
g891
sg64
(lp898
S''
asbasbasbag57
(g73
g59
NtRp899
(dp900
g62
(dp901
sg71
g835
sg64
(lp902
g57
(g78
g59
NtRp903
(dp904
g62
(dp905
g82
g83
ssg71
g899
sg64
(lp906
g347
asbag57
(g78
g59
NtRp907
(dp908
g62
(dp909
g89
g90
ssg71
g899
sg64
(lp910
S':'
asbag57
(g78
g59
NtRp911
(dp912
g62
(dp913
sg71
g899
sg64
(lp914
g57
(g58
g59
NtRp915
(dp916
g62
(dp917
g70
I3
ssg71
g911
sg64
(lp918
S''
asbasbasbag57
(g73
g59
NtRp919
(dp920
g62
(dp921
sg71
g835
sg64
(lp922
g57
(g78
g59
NtRp923
(dp924
g62
(dp925
g82
g83
ssg71
g919
sg64
(lp926
g368
asbag57
(g78
g59
NtRp927
(dp928
g62
(dp929
g89
g90
ssg71
g919
sg64
(lp930
S':'
asbag57
(g78
g59
NtRp931
(dp932
g62
(dp933
sg71
g919
sg64
(lp934
g57
(g58
g59
NtRp935
(dp936
g62
(dp937
g70
I3
ssg71
g931
sg64
(lp938
S''
asbasbasbag57
(g73
g59
NtRp939
(dp940
g62
(dp941
sg71
g835
sg64
(lp942
g57
(g78
g59
NtRp943
(dp944
g62
(dp945
g82
g83
ssg71
g939
sg64
(lp946
g389
asbag57
(g78
g59
NtRp947
(dp948
g62
(dp949
g89
g90
ssg71
g939
sg64
(lp950
S':'
asbag57
(g78
g59
NtRp951
(dp952
g62
(dp953
sg71
g939
sg64
(lp954
g57
(g58
g59
NtRp955
(dp956
g62
(dp957
g70
I3
ssg71
g951
sg64
(lp958
S''
asbasbasbag57
(g73
g59
NtRp959
(dp960
g62
(dp961
sg71
g835
sg64
(lp962
g57
(g78
g59
NtRp963
(dp964
g62
(dp965
g82
g83
ssg71
g959
sg64
(lp966
g410
asbag57
(g78
g59
NtRp967
(dp968
g62
(dp969
g89
g90
ssg71
g959
sg64
(lp970
S':'
asbag57
(g78
g59
NtRp971
(dp972
g62
(dp973
sg71
g959
sg64
(lp974
g57
(g58
g59
NtRp975
(dp976
g62
(dp977
g70
I3
ssg71
g971
sg64
(lp978
S''
asbasbasbag57
(g73
g59
NtRp979
(dp980
g62
(dp981
sg71
g835
sg64
(lp982
g57
(g78
g59
NtRp983
(dp984
g62
(dp985
g82
g83
ssg71
g979
sg64
(lp986
g431
asbag57
(g78
g59
NtRp987
(dp988
g62
(dp989
g89
g90
ssg71
g979
sg64
(lp990
S':'
asbag57
(g78
g59
NtRp991
(dp992
g62
(dp993
sg71
g979
sg64
(lp994
g57
(g58
g59
NtRp995
(dp996
g62
(dp997
g70
I3
ssg71
g991
sg64
(lp998
S''
asbasbasbasbasbasbasbag57
(g73
g59
NtRp999
(dp1000
g62
(dp1001
sg71
g247
sg64
(lp1002
g57
(g78
g59
NtRp1003
(dp1004
g62
(dp1005
g82
g83
ssg71
g999
sg64
(lp1006
S'session_id_topoi'
p1007
asbag57
(g78
g59
NtRp1008
(dp1009
g62
(dp1010
g89
g90
ssg71
g999
sg64
(lp1011
S':'
asbag57
(g78
g59
NtRp1012
(dp1013
g62
(dp1014
sg71
g999
sg64
(lp1015
g57
(g58
g59
NtRp1016
(dp1017
g62
(dp1018
g70
I4
ssg71
g1012
sg64
(lp1019
g57
(g66
g59
NtRp1020
(dp1021
g62
(dp1022
g70
I3
ssg71
Nsg64
(lp1023
g57
(g73
g59
NtRp1024
(dp1025
g62
(dp1026
sg71
g1020
sg64
(lp1027
g57
(g78
g59
NtRp1028
(dp1029
g62
(dp1030
g82
g83
ssg71
g1024
sg64
(lp1031
g284
asbag57
(g78
g59
NtRp1032
(dp1033
g62
(dp1034
g89
g90
ssg71
g1024
sg64
(lp1035
S':'
asbag57
(g78
g59
NtRp1036
(dp1037
g62
(dp1038
sg71
g1024
sg64
(lp1039
g57
(g58
g59
NtRp1040
(dp1041
g62
(dp1042
g70
I3
ssg71
g1036
sg64
(lp1043
S''
asbasbasbag57
(g73
g59
NtRp1044
(dp1045
g62
(dp1046
sg71
g1020
sg64
(lp1047
g57
(g78
g59
NtRp1048
(dp1049
g62
(dp1050
g82
g83
ssg71
g1044
sg64
(lp1051
g305
asbag57
(g78
g59
NtRp1052
(dp1053
g62
(dp1054
g89
g90
ssg71
g1044
sg64
(lp1055
S':'
asbag57
(g78
g59
NtRp1056
(dp1057
g62
(dp1058
sg71
g1044
sg64
(lp1059
g57
(g58
g59
NtRp1060
(dp1061
g62
(dp1062
g70
I3
ssg71
g1056
sg64
(lp1063
S''
asbasbasbag57
(g73
g59
NtRp1064
(dp1065
g62
(dp1066
sg71
g1020
sg64
(lp1067
g57
(g78
g59
NtRp1068
(dp1069
g62
(dp1070
g82
g83
ssg71
g1064
sg64
(lp1071
g326
asbag57
(g78
g59
NtRp1072
(dp1073
g62
(dp1074
g89
g90
ssg71
g1064
sg64
(lp1075
S':'
asbag57
(g78
g59
NtRp1076
(dp1077
g62
(dp1078
sg71
g1064
sg64
(lp1079
g57
(g58
g59
NtRp1080
(dp1081
g62
(dp1082
g70
I3
ssg71
g1076
sg64
(lp1083
S''
asbasbasbag57
(g73
g59
NtRp1084
(dp1085
g62
(dp1086
sg71
g1020
sg64
(lp1087
g57
(g78
g59
NtRp1088
(dp1089
g62
(dp1090
g82
g83
ssg71
g1084
sg64
(lp1091
g347
asbag57
(g78
g59
NtRp1092
(dp1093
g62
(dp1094
g89
g90
ssg71
g1084
sg64
(lp1095
S':'
asbag57
(g78
g59
NtRp1096
(dp1097
g62
(dp1098
sg71
g1084
sg64
(lp1099
g57
(g58
g59
NtRp1100
(dp1101
g62
(dp1102
g70
I3
ssg71
g1096
sg64
(lp1103
S''
asbasbasbag57
(g73
g59
NtRp1104
(dp1105
g62
(dp1106
sg71
g1020
sg64
(lp1107
g57
(g78
g59
NtRp1108
(dp1109
g62
(dp1110
g82
g83
ssg71
g1104
sg64
(lp1111
g368
asbag57
(g78
g59
NtRp1112
(dp1113
g62
(dp1114
g89
g90
ssg71
g1104
sg64
(lp1115
S':'
asbag57
(g78
g59
NtRp1116
(dp1117
g62
(dp1118
sg71
g1104
sg64
(lp1119
g57
(g58
g59
NtRp1120
(dp1121
g62
(dp1122
g70
I3
ssg71
g1116
sg64
(lp1123
S''
asbasbasbag57
(g73
g59
NtRp1124
(dp1125
g62
(dp1126
sg71
g1020
sg64
(lp1127
g57
(g78
g59
NtRp1128
(dp1129
g62
(dp1130
g82
g83
ssg71
g1124
sg64
(lp1131
g389
asbag57
(g78
g59
NtRp1132
(dp1133
g62
(dp1134
g89
g90
ssg71
g1124
sg64
(lp1135
S':'
asbag57
(g78
g59
NtRp1136
(dp1137
g62
(dp1138
sg71
g1124
sg64
(lp1139
g57
(g58
g59
NtRp1140
(dp1141
g62
(dp1142
g70
I3
ssg71
g1136
sg64
(lp1143
S''
asbasbasbag57
(g73
g59
NtRp1144
(dp1145
g62
(dp1146
sg71
g1020
sg64
(lp1147
g57
(g78
g59
NtRp1148
(dp1149
g62
(dp1150
g82
g83
ssg71
g1144
sg64
(lp1151
g410
asbag57
(g78
g59
NtRp1152
(dp1153
g62
(dp1154
g89
g90
ssg71
g1144
sg64
(lp1155
S':'
asbag57
(g78
g59
NtRp1156
(dp1157
g62
(dp1158
sg71
g1144
sg64
(lp1159
g57
(g58
g59
NtRp1160
(dp1161
g62
(dp1162
g70
I3
ssg71
g1156
sg64
(lp1163
S''
asbasbasbag57
(g73
g59
NtRp1164
(dp1165
g62
(dp1166
sg71
g1020
sg64
(lp1167
g57
(g78
g59
NtRp1168
(dp1169
g62
(dp1170
g82
g83
ssg71
g1164
sg64
(lp1171
g431
asbag57
(g78
g59
NtRp1172
(dp1173
g62
(dp1174
g89
g90
ssg71
g1164
sg64
(lp1175
S':'
asbag57
(g78
g59
NtRp1176
(dp1177
g62
(dp1178
sg71
g1164
sg64
(lp1179
g57
(g58
g59
NtRp1180
(dp1181
g62
(dp1182
g70
I3
ssg71
g1176
sg64
(lp1183
S''
asbasbasbasbasbasbasbag57
(g73
g59
NtRp1184
(dp1185
g62
(dp1186
sg71
g247
sg64
(lp1187
g57
(g78
g59
NtRp1188
(dp1189
g62
(dp1190
g82
g83
ssg71
g1184
sg64
(lp1191
S'session_id_welcome'
p1192
asbag57
(g78
g59
NtRp1193
(dp1194
g62
(dp1195
g89
g90
ssg71
g1184
sg64
(lp1196
S':'
asbag57
(g78
g59
NtRp1197
(dp1198
g62
(dp1199
sg71
g1184
sg64
(lp1200
g57
(g58
g59
NtRp1201
(dp1202
g62
(dp1203
g70
I4
ssg71
g1197
sg64
(lp1204
g57
(g66
g59
NtRp1205
(dp1206
g62
(dp1207
g70
I3
ssg71
Nsg64
(lp1208
g57
(g73
g59
NtRp1209
(dp1210
g62
(dp1211
sg71
g1205
sg64
(lp1212
g57
(g78
g59
NtRp1213
(dp1214
g62
(dp1215
g82
g83
ssg71
g1209
sg64
(lp1216
g284
asbag57
(g78
g59
NtRp1217
(dp1218
g62
(dp1219
g89
g90
ssg71
g1209
sg64
(lp1220
S':'
asbag57
(g78
g59
NtRp1221
(dp1222
g62
(dp1223
sg71
g1209
sg64
(lp1224
g57
(g58
g59
NtRp1225
(dp1226
g62
(dp1227
g70
I3
ssg71
g1221
sg64
(lp1228
S''
asbasbasbag57
(g73
g59
NtRp1229
(dp1230
g62
(dp1231
sg71
g1205
sg64
(lp1232
g57
(g78
g59
NtRp1233
(dp1234
g62
(dp1235
g82
g83
ssg71
g1229
sg64
(lp1236
g305
asbag57
(g78
g59
NtRp1237
(dp1238
g62
(dp1239
g89
g90
ssg71
g1229
sg64
(lp1240
S':'
asbag57
(g78
g59
NtRp1241
(dp1242
g62
(dp1243
sg71
g1229
sg64
(lp1244
g57
(g58
g59
NtRp1245
(dp1246
g62
(dp1247
g70
I3
ssg71
g1241
sg64
(lp1248
S''
asbasbasbag57
(g73
g59
NtRp1249
(dp1250
g62
(dp1251
sg71
g1205
sg64
(lp1252
g57
(g78
g59
NtRp1253
(dp1254
g62
(dp1255
g82
g83
ssg71
g1249
sg64
(lp1256
g326
asbag57
(g78
g59
NtRp1257
(dp1258
g62
(dp1259
g89
g90
ssg71
g1249
sg64
(lp1260
S':'
asbag57
(g78
g59
NtRp1261
(dp1262
g62
(dp1263
sg71
g1249
sg64
(lp1264
g57
(g58
g59
NtRp1265
(dp1266
g62
(dp1267
g70
I3
ssg71
g1261
sg64
(lp1268
S''
asbasbasbag57
(g73
g59
NtRp1269
(dp1270
g62
(dp1271
sg71
g1205
sg64
(lp1272
g57
(g78
g59
NtRp1273
(dp1274
g62
(dp1275
g82
g83
ssg71
g1269
sg64
(lp1276
g347
asbag57
(g78
g59
NtRp1277
(dp1278
g62
(dp1279
g89
g90
ssg71
g1269
sg64
(lp1280
S':'
asbag57
(g78
g59
NtRp1281
(dp1282
g62
(dp1283
sg71
g1269
sg64
(lp1284
g57
(g58
g59
NtRp1285
(dp1286
g62
(dp1287
g70
I3
ssg71
g1281
sg64
(lp1288
S''
asbasbasbag57
(g73
g59
NtRp1289
(dp1290
g62
(dp1291
sg71
g1205
sg64
(lp1292
g57
(g78
g59
NtRp1293
(dp1294
g62
(dp1295
g82
g83
ssg71
g1289
sg64
(lp1296
g368
asbag57
(g78
g59
NtRp1297
(dp1298
g62
(dp1299
g89
g90
ssg71
g1289
sg64
(lp1300
S':'
asbag57
(g78
g59
NtRp1301
(dp1302
g62
(dp1303
sg71
g1289
sg64
(lp1304
g57
(g58
g59
NtRp1305
(dp1306
g62
(dp1307
g70
I3
ssg71
g1301
sg64
(lp1308
S''
asbasbasbag57
(g73
g59
NtRp1309
(dp1310
g62
(dp1311
sg71
g1205
sg64
(lp1312
g57
(g78
g59
NtRp1313
(dp1314
g62
(dp1315
g82
g83
ssg71
g1309
sg64
(lp1316
g389
asbag57
(g78
g59
NtRp1317
(dp1318
g62
(dp1319
g89
g90
ssg71
g1309
sg64
(lp1320
S':'
asbag57
(g78
g59
NtRp1321
(dp1322
g62
(dp1323
sg71
g1309
sg64
(lp1324
g57
(g58
g59
NtRp1325
(dp1326
g62
(dp1327
g70
I3
ssg71
g1321
sg64
(lp1328
S''
asbasbasbag57
(g73
g59
NtRp1329
(dp1330
g62
(dp1331
sg71
g1205
sg64
(lp1332
g57
(g78
g59
NtRp1333
(dp1334
g62
(dp1335
g82
g83
ssg71
g1329
sg64
(lp1336
g410
asbag57
(g78
g59
NtRp1337
(dp1338
g62
(dp1339
g89
g90
ssg71
g1329
sg64
(lp1340
S':'
asbag57
(g78
g59
NtRp1341
(dp1342
g62
(dp1343
sg71
g1329
sg64
(lp1344
g57
(g58
g59
NtRp1345
(dp1346
g62
(dp1347
g70
I3
ssg71
g1341
sg64
(lp1348
S''
asbasbasbag57
(g73
g59
NtRp1349
(dp1350
g62
(dp1351
sg71
g1205
sg64
(lp1352
g57
(g78
g59
NtRp1353
(dp1354
g62
(dp1355
g82
g83
ssg71
g1349
sg64
(lp1356
g431
asbag57
(g78
g59
NtRp1357
(dp1358
g62
(dp1359
g89
g90
ssg71
g1349
sg64
(lp1360
S':'
asbag57
(g78
g59
NtRp1361
(dp1362
g62
(dp1363
sg71
g1349
sg64
(lp1364
g57
(g58
g59
NtRp1365
(dp1366
g62
(dp1367
g70
I3
ssg71
g1361
sg64
(lp1368
S''
asbasbasbasbasbasbasbasbasbasbasbag57
(g73
g59
NtRp1369
(dp1370
g62
(dp1371
sg71
g67
sg64
(lp1372
g57
(g78
g59
NtRp1373
(dp1374
g62
(dp1375
g82
g83
ssg71
g1369
sg64
(lp1376
S'env'
p1377
asbag57
(g78
g59
NtRp1378
(dp1379
g62
(dp1380
g89
g90
ssg71
g1369
sg64
(lp1381
S':'
asbag57
(g78
g59
NtRp1382
(dp1383
g62
(dp1384
sg71
g1369
sg64
(lp1385
g57
(g58
g59
NtRp1386
(dp1387
g62
(dp1388
g70
I5
ssg71
g1382
sg64
(lp1389
g57
(g66
g59
NtRp1390
(dp1391
g62
(dp1392
g70
I4
ssg71
Nsg64
(lp1393
g57
(g73
g59
NtRp1394
(dp1395
g62
(dp1396
sg71
g1390
sg64
(lp1397
g57
(g78
g59
NtRp1398
(dp1399
g62
(dp1400
g82
g83
ssg71
g1394
sg64
(lp1401
S'app_folders'
p1402
asbag57
(g78
g59
NtRp1403
(dp1404
g62
(dp1405
g89
g90
ssg71
g1394
sg64
(lp1406
S':'
asbag57
(g78
g59
NtRp1407
(dp1408
g62
(dp1409
sg71
g1394
sg64
(lp1410
g57
(g58
g59
NtRp1411
(dp1412
g62
(dp1413
g70
I4
ssg71
g1407
sg64
(lp1414
S"set(['/home/ian/web2py/applications/topoi/', '/home/ian/web2py/applications/welcome/', '/home/ian/web2py/applications/blog/', '/home/ian/web2py/applications/admin/'])"
p1415
asbasbasbag57
(g73
g59
NtRp1416
(dp1417
g62
(dp1418
sg71
g1390
sg64
(lp1419
g57
(g78
g59
NtRp1420
(dp1421
g62
(dp1422
g82
g83
ssg71
g1416
sg64
(lp1423
S'applications_parent'
p1424
asbag57
(g78
g59
NtRp1425
(dp1426
g62
(dp1427
g89
g90
ssg71
g1416
sg64
(lp1428
S':'
asbag57
(g78
g59
NtRp1429
(dp1430
g62
(dp1431
sg71
g1416
sg64
(lp1432
g57
(g58
g59
NtRp1433
(dp1434
g62
(dp1435
g70
I4
ssg71
g1429
sg64
(lp1436
S'/home/ian/web2py'
p1437
asbasbasbag57
(g73
g59
NtRp1438
(dp1439
g62
(dp1440
sg71
g1390
sg64
(lp1441
g57
(g78
g59
NtRp1442
(dp1443
g62
(dp1444
g82
g83
ssg71
g1438
sg64
(lp1445
S'cmd_args'
p1446
asbag57
(g78
g59
NtRp1447
(dp1448
g62
(dp1449
g89
g90
ssg71
g1438
sg64
(lp1450
S':'
asbag57
(g78
g59
NtRp1451
(dp1452
g62
(dp1453
sg71
g1438
sg64
(lp1454
g57
(g58
g59
NtRp1455
(dp1456
g62
(dp1457
g70
I4
ssg71
g1451
sg64
(lp1458
g57
(g66
g59
NtRp1459
(dp1460
g62
(dp1461
g70
I3
ssg71
Nsg64
(lp1462
sbasbasbasbag57
(g73
g59
NtRp1463
(dp1464
g62
(dp1465
sg71
g1390
sg64
(lp1466
g57
(g78
g59
NtRp1467
(dp1468
g62
(dp1469
g82
g83
ssg71
g1463
sg64
(lp1470
S'cmd_options'
p1471
asbag57
(g78
g59
NtRp1472
(dp1473
g62
(dp1474
g89
g90
ssg71
g1463
sg64
(lp1475
S':'
asbag57
(g78
g59
NtRp1476
(dp1477
g62
(dp1478
sg71
g1463
sg64
(lp1479
g57
(g58
g59
NtRp1480
(dp1481
g62
(dp1482
g70
I4
ssg71
g1476
sg64
(lp1483
S"<Values at 0x1361b00: {'verbose': False, 'ip': '127.0.0.1', 'shutdown_timeout': 5, 'taskbar': False, 'nocron': False, 'pid_filename': 'httpserver.pid', 'maxthreads': None, 'softcron': False, 'server_name': 'Ariel-ubuntu', 'bpython': False, 'nogui': False, 'port': 8000, 'extcron': False, 'debuglevel': 30, 'test': None, 'folder': '/home/ian/web2py', 'config': '', 'import_models': False, 'winservice': '', 'shell': None, 'run': '', 'log_filename': 'httpserver.log', 'args': [''], 'socket_timeout': 1, 'ssl_ca_certificate': None, 'scheduler': None, 'profiler_filename': None, 'ssl_private_key': '', 'password': '<ask>', 'request_queue_size': 5, 'ssl_certificate': '', 'cronjob': False, 'numthreads': None, 'quiet': False, 'interfaces': None, 'minthreads': None, 'timeout': 10, 'plain': False, 'nobanner': False}>"
p1484
asbasbasbag57
(g73
g59
NtRp1485
(dp1486
g62
(dp1487
sg71
g1390
sg64
(lp1488
g57
(g78
g59
NtRp1489
(dp1490
g62
(dp1491
g82
g83
ssg71
g1485
sg64
(lp1492
S'content_length'
p1493
asbag57
(g78
g59
NtRp1494
(dp1495
g62
(dp1496
g89
g90
ssg71
g1485
sg64
(lp1497
S':'
asbag57
(g78
g59
NtRp1498
(dp1499
g62
(dp1500
sg71
g1485
sg64
(lp1501
g57
(g58
g59
NtRp1502
(dp1503
g62
(dp1504
g70
I4
ssg71
g1498
sg64
(lp1505
S'1154'
p1506
asbasbasbag57
(g73
g59
NtRp1507
(dp1508
g62
(dp1509
sg71
g1390
sg64
(lp1510
g57
(g78
g59
NtRp1511
(dp1512
g62
(dp1513
g82
g83
ssg71
g1507
sg64
(lp1514
S'content_type'
p1515
asbag57
(g78
g59
NtRp1516
(dp1517
g62
(dp1518
g89
g90
ssg71
g1507
sg64
(lp1519
S':'
asbag57
(g78
g59
NtRp1520
(dp1521
g62
(dp1522
sg71
g1507
sg64
(lp1523
g57
(g58
g59
NtRp1524
(dp1525
g62
(dp1526
g70
I4
ssg71
g1520
sg64
(lp1527
S'multipart/form-data; boundary=---------------------------1355012451342900952642009788'
p1528
asbasbasbag57
(g73
g59
NtRp1529
(dp1530
g62
(dp1531
sg71
g1390
sg64
(lp1532
g57
(g78
g59
NtRp1533
(dp1534
g62
(dp1535
g82
g83
ssg71
g1529
sg64
(lp1536
S'db_sessions'
p1537
asbag57
(g78
g59
NtRp1538
(dp1539
g62
(dp1540
g89
g90
ssg71
g1529
sg64
(lp1541
S':'
asbag57
(g78
g59
NtRp1542
(dp1543
g62
(dp1544
sg71
g1529
sg64
(lp1545
g57
(g58
g59
NtRp1546
(dp1547
g62
(dp1548
g70
I4
ssg71
g1542
sg64
(lp1549
S'set([])'
p1550
asbasbasbag57
(g73
g59
NtRp1551
(dp1552
g62
(dp1553
sg71
g1390
sg64
(lp1554
g57
(g78
g59
NtRp1555
(dp1556
g62
(dp1557
g82
g83
ssg71
g1551
sg64
(lp1558
S'debugging'
p1559
asbag57
(g78
g59
NtRp1560
(dp1561
g62
(dp1562
g89
g90
ssg71
g1551
sg64
(lp1563
S':'
asbag57
(g78
g59
NtRp1564
(dp1565
g62
(dp1566
sg71
g1551
sg64
(lp1567
g57
(g58
g59
NtRp1568
(dp1569
g62
(dp1570
g70
I4
ssg71
g1564
sg64
(lp1571
g100
asbasbasbag57
(g73
g59
NtRp1572
(dp1573
g62
(dp1574
sg71
g1390
sg64
(lp1575
g57
(g78
g59
NtRp1576
(dp1577
g62
(dp1578
g82
g83
ssg71
g1572
sg64
(lp1579
S'gluon_parent'
p1580
asbag57
(g78
g59
NtRp1581
(dp1582
g62
(dp1583
g89
g90
ssg71
g1572
sg64
(lp1584
S':'
asbag57
(g78
g59
NtRp1585
(dp1586
g62
(dp1587
sg71
g1572
sg64
(lp1588
g57
(g58
g59
NtRp1589
(dp1590
g62
(dp1591
g70
I4
ssg71
g1585
sg64
(lp1592
S'/home/ian/web2py'
p1593
asbasbasbag57
(g73
g59
NtRp1594
(dp1595
g62
(dp1596
sg71
g1390
sg64
(lp1597
g57
(g78
g59
NtRp1598
(dp1599
g62
(dp1600
g82
g83
ssg71
g1594
sg64
(lp1601
S'http_accept'
p1602
asbag57
(g78
g59
NtRp1603
(dp1604
g62
(dp1605
g89
g90
ssg71
g1594
sg64
(lp1606
S':'
asbag57
(g78
g59
NtRp1607
(dp1608
g62
(dp1609
sg71
g1594
sg64
(lp1610
g57
(g58
g59
NtRp1611
(dp1612
g62
(dp1613
g70
I4
ssg71
g1607
sg64
(lp1614
S'text/html,application/xhtml+xml,application/xml;q=0.9,*/*;q=0.8'
p1615
asbasbasbag57
(g73
g59
NtRp1616
(dp1617
g62
(dp1618
sg71
g1390
sg64
(lp1619
g57
(g78
g59
NtRp1620
(dp1621
g62
(dp1622
g82
g83
ssg71
g1616
sg64
(lp1623
S'http_accept_charset'
p1624
asbag57
(g78
g59
NtRp1625
(dp1626
g62
(dp1627
g89
g90
ssg71
g1616
sg64
(lp1628
S':'
asbag57
(g78
g59
NtRp1629
(dp1630
g62
(dp1631
sg71
g1616
sg64
(lp1632
g57
(g58
g59
NtRp1633
(dp1634
g62
(dp1635
g70
I4
ssg71
g1629
sg64
(lp1636
S'ISO-8859-1,utf-8;q=0.7,*;q=0.7'
p1637
asbasbasbag57
(g73
g59
NtRp1638
(dp1639
g62
(dp1640
sg71
g1390
sg64
(lp1641
g57
(g78
g59
NtRp1642
(dp1643
g62
(dp1644
g82
g83
ssg71
g1638
sg64
(lp1645
S'http_accept_encoding'
p1646
asbag57
(g78
g59
NtRp1647
(dp1648
g62
(dp1649
g89
g90
ssg71
g1638
sg64
(lp1650
S':'
asbag57
(g78
g59
NtRp1651
(dp1652
g62
(dp1653
sg71
g1638
sg64
(lp1654
g57
(g58
g59
NtRp1655
(dp1656
g62
(dp1657
g70
I4
ssg71
g1651
sg64
(lp1658
S'gzip, deflate'
p1659
asbasbasbag57
(g73
g59
NtRp1660
(dp1661
g62
(dp1662
sg71
g1390
sg64
(lp1663
g57
(g78
g59
NtRp1664
(dp1665
g62
(dp1666
g82
g83
ssg71
g1660
sg64
(lp1667
S'http_accept_language'
p1668
asbag57
(g78
g59
NtRp1669
(dp1670
g62
(dp1671
g89
g90
ssg71
g1660
sg64
(lp1672
S':'
asbag57
(g78
g59
NtRp1673
(dp1674
g62
(dp1675
sg71
g1660
sg64
(lp1676
g57
(g58
g59
NtRp1677
(dp1678
g62
(dp1679
g70
I4
ssg71
g1673
sg64
(lp1680
S'en-us,en;q=0.5'
p1681
asbasbasbag57
(g73
g59
NtRp1682
(dp1683
g62
(dp1684
sg71
g1390
sg64
(lp1685
g57
(g78
g59
NtRp1686
(dp1687
g62
(dp1688
g82
g83
ssg71
g1682
sg64
(lp1689
S'http_connection'
p1690
asbag57
(g78
g59
NtRp1691
(dp1692
g62
(dp1693
g89
g90
ssg71
g1682
sg64
(lp1694
S':'
asbag57
(g78
g59
NtRp1695
(dp1696
g62
(dp1697
sg71
g1682
sg64
(lp1698
g57
(g58
g59
NtRp1699
(dp1700
g62
(dp1701
g70
I4
ssg71
g1695
sg64
(lp1702
S'keep-alive'
p1703
asbasbasbag57
(g73
g59
NtRp1704
(dp1705
g62
(dp1706
sg71
g1390
sg64
(lp1707
g57
(g78
g59
NtRp1708
(dp1709
g62
(dp1710
g82
g83
ssg71
g1704
sg64
(lp1711
S'http_content_length'
p1712
asbag57
(g78
g59
NtRp1713
(dp1714
g62
(dp1715
g89
g90
ssg71
g1704
sg64
(lp1716
S':'
asbag57
(g78
g59
NtRp1717
(dp1718
g62
(dp1719
sg71
g1704
sg64
(lp1720
g57
(g58
g59
NtRp1721
(dp1722
g62
(dp1723
g70
I4
ssg71
g1717
sg64
(lp1724
g1506
asbasbasbag57
(g73
g59
NtRp1725
(dp1726
g62
(dp1727
sg71
g1390
sg64
(lp1728
g57
(g78
g59
NtRp1729
(dp1730
g62
(dp1731
g82
g83
ssg71
g1725
sg64
(lp1732
S'http_content_type'
p1733
asbag57
(g78
g59
NtRp1734
(dp1735
g62
(dp1736
g89
g90
ssg71
g1725
sg64
(lp1737
S':'
asbag57
(g78
g59
NtRp1738
(dp1739
g62
(dp1740
sg71
g1725
sg64
(lp1741
g57
(g58
g59
NtRp1742
(dp1743
g62
(dp1744
g70
I4
ssg71
g1738
sg64
(lp1745
g1528
asbasbasbag57
(g73
g59
NtRp1746
(dp1747
g62
(dp1748
sg71
g1390
sg64
(lp1749
g57
(g78
g59
NtRp1750
(dp1751
g62
(dp1752
g82
g83
ssg71
g1746
sg64
(lp1753
S'http_cookie'
p1754
asbag57
(g78
g59
NtRp1755
(dp1756
g62
(dp1757
g89
g90
ssg71
g1746
sg64
(lp1758
S':'
asbag57
(g78
g59
NtRp1759
(dp1760
g62
(dp1761
sg71
g1746
sg64
(lp1762
g57
(g58
g59
NtRp1763
(dp1764
g62
(dp1765
g70
I4
ssg71
g1759
sg64
(lp1766
S'__utma_a2a=9789918665.1351576430.1320019504.1320019504.1320019504.1; session_id_grades=127.0.0.1-dd79f5dc-b5bd-45ea-8db7-d0bfdd939f5e; session_id_paideia=127.0.0.1-e39bb56e-30eb-4da5-9f4e-559a6c22ef0d; session_id_topoi=127.0.0.1-36a47132-9f63-403c-93e8-4b961484278b; session_id_welcome=127.0.0.1-71b873b5-a388-4219-9cc8-2637dd6e36c2; session_id_admin=127.0.0.1-f63c967d-18bc-4a61-8e33-0a7ec5b4da07; session_id_blog=127.0.0.1-448ebfff-1985-4742-b850-118a78702f09'
p1767
asbasbasbag57
(g73
g59
NtRp1768
(dp1769
g62
(dp1770
sg71
g1390
sg64
(lp1771
g57
(g78
g59
NtRp1772
(dp1773
g62
(dp1774
g82
g83
ssg71
g1768
sg64
(lp1775
S'http_host'
p1776
asbag57
(g78
g59
NtRp1777
(dp1778
g62
(dp1779
g89
g90
ssg71
g1768
sg64
(lp1780
S':'
asbag57
(g78
g59
NtRp1781
(dp1782
g62
(dp1783
sg71
g1768
sg64
(lp1784
g57
(g58
g59
NtRp1785
(dp1786
g62
(dp1787
g70
I4
ssg71
g1781
sg64
(lp1788
S'127.0.0.1:8000'
p1789
asbasbasbag57
(g73
g59
NtRp1790
(dp1791
g62
(dp1792
sg71
g1390
sg64
(lp1793
g57
(g78
g59
NtRp1794
(dp1795
g62
(dp1796
g82
g83
ssg71
g1790
sg64
(lp1797
S'http_referer'
p1798
asbag57
(g78
g59
NtRp1799
(dp1800
g62
(dp1801
g89
g90
ssg71
g1790
sg64
(lp1802
S':'
asbag57
(g78
g59
NtRp1803
(dp1804
g62
(dp1805
sg71
g1790
sg64
(lp1806
g57
(g58
g59
NtRp1807
(dp1808
g62
(dp1809
g70
I4
ssg71
g1803
sg64
(lp1810
S'http://127.0.0.1:8000/blog/default/user/register?_next=/blog/appadmin/select/db%3Fdelete_check%3Don%26query%3Ddb.auth_user.id%2B%253D%253D%2B1%26update_fields%3D'
p1811
asbasbasbag57
(g73
g59
NtRp1812
(dp1813
g62
(dp1814
sg71
g1390
sg64
(lp1815
g57
(g78
g59
NtRp1816
(dp1817
g62
(dp1818
g82
g83
ssg71
g1812
sg64
(lp1819
S'http_user_agent'
p1820
asbag57
(g78
g59
NtRp1821
(dp1822
g62
(dp1823
g89
g90
ssg71
g1812
sg64
(lp1824
S':'
asbag57
(g78
g59
NtRp1825
(dp1826
g62
(dp1827
sg71
g1812
sg64
(lp1828
g57
(g58
g59
NtRp1829
(dp1830
g62
(dp1831
g70
I4
ssg71
g1825
sg64
(lp1832
S'Mozilla/5.0 (Ubuntu; X11; Linux x86_64; rv:9.0.1) Gecko/20100101 Firefox/9.0.1'
p1833
asbasbasbag57
(g73
g59
NtRp1834
(dp1835
g62
(dp1836
sg71
g1390
sg64
(lp1837
g57
(g78
g59
NtRp1838
(dp1839
g62
(dp1840
g82
g83
ssg71
g1834
sg64
(lp1841
S'is_jython'
p1842
asbag57
(g78
g59
NtRp1843
(dp1844
g62
(dp1845
g89
g90
ssg71
g1834
sg64
(lp1846
S':'
asbag57
(g78
g59
NtRp1847
(dp1848
g62
(dp1849
sg71
g1834
sg64
(lp1850
g57
(g58
g59
NtRp1851
(dp1852
g62
(dp1853
g70
I4
ssg71
g1847
sg64
(lp1854
g100
asbasbasbag57
(g73
g59
NtRp1855
(dp1856
g62
(dp1857
sg71
g1390
sg64
(lp1858
g57
(g78
g59
NtRp1859
(dp1860
g62
(dp1861
g82
g83
ssg71
g1855
sg64
(lp1862
S'is_pypy'
p1863
asbag57
(g78
g59
NtRp1864
(dp1865
g62
(dp1866
g89
g90
ssg71
g1855
sg64
(lp1867
S':'
asbag57
(g78
g59
NtRp1868
(dp1869
g62
(dp1870
sg71
g1855
sg64
(lp1871
g57
(g58
g59
NtRp1872
(dp1873
g62
(dp1874
g70
I4
ssg71
g1868
sg64
(lp1875
g100
asbasbasbag57
(g73
g59
NtRp1876
(dp1877
g62
(dp1878
sg71
g1390
sg64
(lp1879
g57
(g78
g59
NtRp1880
(dp1881
g62
(dp1882
g82
g83
ssg71
g1876
sg64
(lp1883
S'path_info'
p1884
asbag57
(g78
g59
NtRp1885
(dp1886
g62
(dp1887
g89
g90
ssg71
g1876
sg64
(lp1888
S':'
asbag57
(g78
g59
NtRp1889
(dp1890
g62
(dp1891
sg71
g1876
sg64
(lp1892
g57
(g58
g59
NtRp1893
(dp1894
g62
(dp1895
g70
I4
ssg71
g1889
sg64
(lp1896
S'/blog/default/user/register'
p1897
asbasbasbag57
(g73
g59
NtRp1898
(dp1899
g62
(dp1900
sg71
g1390
sg64
(lp1901
g57
(g78
g59
NtRp1902
(dp1903
g62
(dp1904
g82
g83
ssg71
g1898
sg64
(lp1905
S'query_string'
p1906
asbag57
(g78
g59
NtRp1907
(dp1908
g62
(dp1909
g89
g90
ssg71
g1898
sg64
(lp1910
S':'
asbag57
(g78
g59
NtRp1911
(dp1912
g62
(dp1913
sg71
g1898
sg64
(lp1914
g57
(g58
g59
NtRp1915
(dp1916
g62
(dp1917
g70
I4
ssg71
g1911
sg64
(lp1918
S'_next=/blog/appadmin/select/db%3Fdelete_check%3Don%26query%3Ddb.auth_user.id%2B%253D%253D%2B1%26update_fields%3D'
p1919
asbasbasbag57
(g73
g59
NtRp1920
(dp1921
g62
(dp1922
sg71
g1390
sg64
(lp1923
g57
(g78
g59
NtRp1924
(dp1925
g62
(dp1926
g82
g83
ssg71
g1920
sg64
(lp1927
S'remote_addr'
p1928
asbag57
(g78
g59
NtRp1929
(dp1930
g62
(dp1931
g89
g90
ssg71
g1920
sg64
(lp1932
S':'
asbag57
(g78
g59
NtRp1933
(dp1934
g62
(dp1935
sg71
g1920
sg64
(lp1936
g57
(g58
g59
NtRp1937
(dp1938
g62
(dp1939
g70
I4
ssg71
g1933
sg64
(lp1940
g203
asbasbasbag57
(g73
g59
NtRp1941
(dp1942
g62
(dp1943
sg71
g1390
sg64
(lp1944
g57
(g78
g59
NtRp1945
(dp1946
g62
(dp1947
g82
g83
ssg71
g1941
sg64
(lp1948
S'remote_port'
p1949
asbag57
(g78
g59
NtRp1950
(dp1951
g62
(dp1952
g89
g90
ssg71
g1941
sg64
(lp1953
S':'
asbag57
(g78
g59
NtRp1954
(dp1955
g62
(dp1956
sg71
g1941
sg64
(lp1957
g57
(g58
g59
NtRp1958
(dp1959
g62
(dp1960
g70
I4
ssg71
g1954
sg64
(lp1961
S'34075'
p1962
asbasbasbag57
(g73
g59
NtRp1963
(dp1964
g62
(dp1965
sg71
g1390
sg64
(lp1966
g57
(g78
g59
NtRp1967
(dp1968
g62
(dp1969
g82
g83
ssg71
g1963
sg64
(lp1970
S'request_method'
p1971
asbag57
(g78
g59
NtRp1972
(dp1973
g62
(dp1974
g89
g90
ssg71
g1963
sg64
(lp1975
S':'
asbag57
(g78
g59
NtRp1976
(dp1977
g62
(dp1978
sg71
g1963
sg64
(lp1979
g57
(g58
g59
NtRp1980
(dp1981
g62
(dp1982
g70
I4
ssg71
g1976
sg64
(lp1983
S'POST'
p1984
asbasbasbag57
(g73
g59
NtRp1985
(dp1986
g62
(dp1987
sg71
g1390
sg64
(lp1988
g57
(g78
g59
NtRp1989
(dp1990
g62
(dp1991
g82
g83
ssg71
g1985
sg64
(lp1992
S'script_name'
p1993
asbag57
(g78
g59
NtRp1994
(dp1995
g62
(dp1996
g89
g90
ssg71
g1985
sg64
(lp1997
S':'
asbag57
(g78
g59
NtRp1998
(dp1999
g62
(dp2000
sg71
g1985
sg64
(lp2001
g57
(g58
g59
NtRp2002
(dp2003
g62
(dp2004
g70
I4
ssg71
g1998
sg64
(lp2005
S''
asbasbasbag57
(g73
g59
NtRp2006
(dp2007
g62
(dp2008
sg71
g1390
sg64
(lp2009
g57
(g78
g59
NtRp2010
(dp2011
g62
(dp2012
g82
g83
ssg71
g2006
sg64
(lp2013
S'server_name'
p2014
asbag57
(g78
g59
NtRp2015
(dp2016
g62
(dp2017
g89
g90
ssg71
g2006
sg64
(lp2018
S':'
asbag57
(g78
g59
NtRp2019
(dp2020
g62
(dp2021
sg71
g2006
sg64
(lp2022
g57
(g58
g59
NtRp2023
(dp2024
g62
(dp2025
g70
I4
ssg71
g2019
sg64
(lp2026
S'Ariel-ubuntu'
p2027
asbasbasbag57
(g73
g59
NtRp2028
(dp2029
g62
(dp2030
sg71
g1390
sg64
(lp2031
g57
(g78
g59
NtRp2032
(dp2033
g62
(dp2034
g82
g83
ssg71
g2028
sg64
(lp2035
S'server_port'
p2036
asbag57
(g78
g59
NtRp2037
(dp2038
g62
(dp2039
g89
g90
ssg71
g2028
sg64
(lp2040
S':'
asbag57
(g78
g59
NtRp2041
(dp2042
g62
(dp2043
sg71
g2028
sg64
(lp2044
g57
(g58
g59
NtRp2045
(dp2046
g62
(dp2047
g70
I4
ssg71
g2041
sg64
(lp2048
S'8000'
p2049
asbasbasbag57
(g73
g59
NtRp2050
(dp2051
g62
(dp2052
sg71
g1390
sg64
(lp2053
g57
(g78
g59
NtRp2054
(dp2055
g62
(dp2056
g82
g83
ssg71
g2050
sg64
(lp2057
S'server_protocol'
p2058
asbag57
(g78
g59
NtRp2059
(dp2060
g62
(dp2061
g89
g90
ssg71
g2050
sg64
(lp2062
S':'
asbag57
(g78
g59
NtRp2063
(dp2064
g62
(dp2065
sg71
g2050
sg64
(lp2066
g57
(g58
g59
NtRp2067
(dp2068
g62
(dp2069
g70
I4
ssg71
g2063
sg64
(lp2070
S'HTTP/1.1'
p2071
asbasbasbag57
(g73
g59
NtRp2072
(dp2073
g62
(dp2074
sg71
g1390
sg64
(lp2075
g57
(g78
g59
NtRp2076
(dp2077
g62
(dp2078
g82
g83
ssg71
g2072
sg64
(lp2079
S'server_software'
p2080
asbag57
(g78
g59
NtRp2081
(dp2082
g62
(dp2083
g89
g90
ssg71
g2072
sg64
(lp2084
S':'
asbag57
(g78
g59
NtRp2085
(dp2086
g62
(dp2087
sg71
g2072
sg64
(lp2088
g57
(g58
g59
NtRp2089
(dp2090
g62
(dp2091
g70
I4
ssg71
g2085
sg64
(lp2092
S'Rocket 1.2.4'
p2093
asbasbasbag57
(g73
g59
NtRp2094
(dp2095
g62
(dp2096
sg71
g1390
sg64
(lp2097
g57
(g78
g59
NtRp2098
(dp2099
g62
(dp2100
g82
g83
ssg71
g2094
sg64
(lp2101
S'web2py_crontype'
p2102
asbag57
(g78
g59
NtRp2103
(dp2104
g62
(dp2105
g89
g90
ssg71
g2094
sg64
(lp2106
S':'
asbag57
(g78
g59
NtRp2107
(dp2108
g62
(dp2109
sg71
g2094
sg64
(lp2110
g57
(g58
g59
NtRp2111
(dp2112
g62
(dp2113
g70
I4
ssg71
g2107
sg64
(lp2114
S'hard'
p2115
asbasbasbag57
(g73
g59
NtRp2116
(dp2117
g62
(dp2118
sg71
g1390
sg64
(lp2119
g57
(g78
g59
NtRp2120
(dp2121
g62
(dp2122
g82
g83
ssg71
g2116
sg64
(lp2123
S'web2py_path'
p2124
asbag57
(g78
g59
NtRp2125
(dp2126
g62
(dp2127
g89
g90
ssg71
g2116
sg64
(lp2128
S':'
asbag57
(g78
g59
NtRp2129
(dp2130
g62
(dp2131
sg71
g2116
sg64
(lp2132
g57
(g58
g59
NtRp2133
(dp2134
g62
(dp2135
g70
I4
ssg71
g2129
sg64
(lp2136
g1437
asbasbasbag57
(g73
g59
NtRp2137
(dp2138
g62
(dp2139
sg71
g1390
sg64
(lp2140
g57
(g78
g59
NtRp2141
(dp2142
g62
(dp2143
g82
g83
ssg71
g2137
sg64
(lp2144
S'web2py_version'
p2145
asbag57
(g78
g59
NtRp2146
(dp2147
g62
(dp2148
g89
g90
ssg71
g2137
sg64
(lp2149
S':'
asbag57
(g78
g59
NtRp2150
(dp2151
g62
(dp2152
sg71
g2137
sg64
(lp2153
g57
(g58
g59
NtRp2154
(dp2155
g62
(dp2156
g70
I4
ssg71
g2150
sg64
(lp2157
g57
(g66
g59
NtRp2158
(dp2159
g62
(dp2160
g70
I3
ssg71
Nsg64
(lp2161
g57
(g73
g59
NtRp2162
(dp2163
g62
(dp2164
sg71
g2158
sg64
(lp2165
g57
(g78
g59
NtRp2166
(dp2167
g62
(dp2168
sg71
g2162
sg64
(lp2169
g57
(g58
g59
NtRp2170
(dp2171
g62
(dp2172
g70
I3
ssg71
g2166
sg64
(lp2173
S'1'
asbasbasbag57
(g73
g59
NtRp2174
(dp2175
g62
(dp2176
sg71
g2158
sg64
(lp2177
g57
(g78
g59
NtRp2178
(dp2179
g62
(dp2180
sg71
g2174
sg64
(lp2181
g57
(g58
g59
NtRp2182
(dp2183
g62
(dp2184
g70
I3
ssg71
g2178
sg64
(lp2185
S'99'
p2186
asbasbasbag57
(g73
g59
NtRp2187
(dp2188
g62
(dp2189
sg71
g2158
sg64
(lp2190
g57
(g78
g59
NtRp2191
(dp2192
g62
(dp2193
sg71
g2187
sg64
(lp2194
g57
(g58
g59
NtRp2195
(dp2196
g62
(dp2197
g70
I3
ssg71
g2191
sg64
(lp2198
S'4'
asbasbasbag57
(g73
g59
NtRp2199
(dp2200
g62
(dp2201
sg71
g2158
sg64
(lp2202
g57
(g78
g59
NtRp2203
(dp2204
g62
(dp2205
sg71
g2199
sg64
(lp2206
g57
(g58
g59
NtRp2207
(dp2208
g62
(dp2209
g70
I3
ssg71
g2203
sg64
(lp2210
S'datetime.datetime(2011, 12, 14, 14, 46, 14)'
p2211
asbasbasbag57
(g73
g59
NtRp2212
(dp2213
g62
(dp2214
sg71
g2158
sg64
(lp2215
g57
(g78
g59
NtRp2216
(dp2217
g62
(dp2218
sg71
g2212
sg64
(lp2219
g57
(g58
g59
NtRp2220
(dp2221
g62
(dp2222
g70
I3
ssg71
g2216
sg64
(lp2223
S'stable'
p2224
asbasbasbasbasbasbasbag57
(g73
g59
NtRp2225
(dp2226
g62
(dp2227
sg71
g1390
sg64
(lp2228
g57
(g78
g59
NtRp2229
(dp2230
g62
(dp2231
g82
g83
ssg71
g2225
sg64
(lp2232
S'wsgi_errors'
p2233
asbag57
(g78
g59
NtRp2234
(dp2235
g62
(dp2236
g89
g90
ssg71
g2225
sg64
(lp2237
S':'
asbag57
(g78
g59
NtRp2238
(dp2239
g62
(dp2240
sg71
g2225
sg64
(lp2241
g57
(g58
g59
NtRp2242
(dp2243
g62
(dp2244
g70
I4
ssg71
g2238
sg64
(lp2245
S"<open file '<stderr>', mode 'w' at 0x7f67b8508270>"
p2246
asbasbasbag57
(g73
g59
NtRp2247
(dp2248
g62
(dp2249
sg71
g1390
sg64
(lp2250
g57
(g78
g59
NtRp2251
(dp2252
g62
(dp2253
g82
g83
ssg71
g2247
sg64
(lp2254
S'wsgi_file_wrapper'
p2255
asbag57
(g78
g59
NtRp2256
(dp2257
g62
(dp2258
g89
g90
ssg71
g2247
sg64
(lp2259
S':'
asbag57
(g78
g59
NtRp2260
(dp2261
g62
(dp2262
sg71
g2247
sg64
(lp2263
g57
(g58
g59
NtRp2264
(dp2265
g62
(dp2266
g70
I4
ssg71
g2260
sg64
(lp2267
S'<class wsgiref.util.FileWrapper at 0x121ec80>'
p2268
asbasbasbag57
(g73
g59
NtRp2269
(dp2270
g62
(dp2271
sg71
g1390
sg64
(lp2272
g57
(g78
g59
NtRp2273
(dp2274
g62
(dp2275
g82
g83
ssg71
g2269
sg64
(lp2276
S'wsgi_input'
p2277
asbag57
(g78
g59
NtRp2278
(dp2279
g62
(dp2280
g89
g90
ssg71
g2269
sg64
(lp2281
S':'
asbag57
(g78
g59
NtRp2282
(dp2283
g62
(dp2284
sg71
g2269
sg64
(lp2285
g57
(g58
g59
NtRp2286
(dp2287
g62
(dp2288
g70
I4
ssg71
g2282
sg64
(lp2289
S'<socket._fileobject object at 0x18d7bd0>'
p2290
asbasbasbag57
(g73
g59
NtRp2291
(dp2292
g62
(dp2293
sg71
g1390
sg64
(lp2294
g57
(g78
g59
NtRp2295
(dp2296
g62
(dp2297
g82
g83
ssg71
g2291
sg64
(lp2298
S'wsgi_multiprocess'
p2299
asbag57
(g78
g59
NtRp2300
(dp2301
g62
(dp2302
g89
g90
ssg71
g2291
sg64
(lp2303
S':'
asbag57
(g78
g59
NtRp2304
(dp2305
g62
(dp2306
sg71
g2291
sg64
(lp2307
g57
(g58
g59
NtRp2308
(dp2309
g62
(dp2310
g70
I4
ssg71
g2304
sg64
(lp2311
g100
asbasbasbag57
(g73
g59
NtRp2312
(dp2313
g62
(dp2314
sg71
g1390
sg64
(lp2315
g57
(g78
g59
NtRp2316
(dp2317
g62
(dp2318
g82
g83
ssg71
g2312
sg64
(lp2319
S'wsgi_multithread'
p2320
asbag57
(g78
g59
NtRp2321
(dp2322
g62
(dp2323
g89
g90
ssg71
g2312
sg64
(lp2324
S':'
asbag57
(g78
g59
NtRp2325
(dp2326
g62
(dp2327
sg71
g2312
sg64
(lp2328
g57
(g58
g59
NtRp2329
(dp2330
g62
(dp2331
g70
I4
ssg71
g2325
sg64
(lp2332
S'True'
p2333
asbasbasbag57
(g73
g59
NtRp2334
(dp2335
g62
(dp2336
sg71
g1390
sg64
(lp2337
g57
(g78
g59
NtRp2338
(dp2339
g62
(dp2340
g82
g83
ssg71
g2334
sg64
(lp2341
S'wsgi_run_once'
p2342
asbag57
(g78
g59
NtRp2343
(dp2344
g62
(dp2345
g89
g90
ssg71
g2334
sg64
(lp2346
S':'
asbag57
(g78
g59
NtRp2347
(dp2348
g62
(dp2349
sg71
g2334
sg64
(lp2350
g57
(g58
g59
NtRp2351
(dp2352
g62
(dp2353
g70
I4
ssg71
g2347
sg64
(lp2354
g100
asbasbasbag57
(g73
g59
NtRp2355
(dp2356
g62
(dp2357
sg71
g1390
sg64
(lp2358
g57
(g78
g59
NtRp2359
(dp2360
g62
(dp2361
g82
g83
ssg71
g2355
sg64
(lp2362
S'wsgi_url_scheme'
p2363
asbag57
(g78
g59
NtRp2364
(dp2365
g62
(dp2366
g89
g90
ssg71
g2355
sg64
(lp2367
S':'
asbag57
(g78
g59
NtRp2368
(dp2369
g62
(dp2370
sg71
g2355
sg64
(lp2371
g57
(g58
g59
NtRp2372
(dp2373
g62
(dp2374
g70
I4
ssg71
g2368
sg64
(lp2375
S'http'
p2376
asbasbasbag57
(g73
g59
NtRp2377
(dp2378
g62
(dp2379
sg71
g1390
sg64
(lp2380
g57
(g78
g59
NtRp2381
(dp2382
g62
(dp2383
g82
g83
ssg71
g2377
sg64
(lp2384
S'wsgi_version'
p2385
asbag57
(g78
g59
NtRp2386
(dp2387
g62
(dp2388
g89
g90
ssg71
g2377
sg64
(lp2389
S':'
asbag57
(g78
g59
NtRp2390
(dp2391
g62
(dp2392
sg71
g2377
sg64
(lp2393
g57
(g58
g59
NtRp2394
(dp2395
g62
(dp2396
g70
I4
ssg71
g2390
sg64
(lp2397
g57
(g66
g59
NtRp2398
(dp2399
g62
(dp2400
g70
I3
ssg71
Nsg64
(lp2401
g57
(g73
g59
NtRp2402
(dp2403
g62
(dp2404
sg71
g2398
sg64
(lp2405
g57
(g78
g59
NtRp2406
(dp2407
g62
(dp2408
sg71
g2402
sg64
(lp2409
g57
(g58
g59
NtRp2410
(dp2411
g62
(dp2412
g70
I3
ssg71
g2406
sg64
(lp2413
S'1'
asbasbasbag57
(g73
g59
NtRp2414
(dp2415
g62
(dp2416
sg71
g2398
sg64
(lp2417
g57
(g78
g59
NtRp2418
(dp2419
g62
(dp2420
sg71
g2414
sg64
(lp2421
g57
(g58
g59
NtRp2422
(dp2423
g62
(dp2424
g70
I3
ssg71
g2418
sg64
(lp2425
S'0'
asbasbasbasbasbasbasbasbasbasbasbag57
(g73
g59
NtRp2426
(dp2427
g62
(dp2428
sg71
g67
sg64
(lp2429
g57
(g78
g59
NtRp2430
(dp2431
g62
(dp2432
g82
g83
ssg71
g2426
sg64
(lp2433
S'extension'
p2434
asbag57
(g78
g59
NtRp2435
(dp2436
g62
(dp2437
g89
g90
ssg71
g2426
sg64
(lp2438
S':'
asbag57
(g78
g59
NtRp2439
(dp2440
g62
(dp2441
sg71
g2426
sg64
(lp2442
g57
(g58
g59
NtRp2443
(dp2444
g62
(dp2445
g70
I5
ssg71
g2439
sg64
(lp2446
S'html'
p2447
asbasbasbag57
(g73
g59
NtRp2448
(dp2449
g62
(dp2450
sg71
g67
sg64
(lp2451
g57
(g78
g59
NtRp2452
(dp2453
g62
(dp2454
g82
g83
ssg71
g2448
sg64
(lp2455
S'folder'
p2456
asbag57
(g78
g59
NtRp2457
(dp2458
g62
(dp2459
g89
g90
ssg71
g2448
sg64
(lp2460
S':'
asbag57
(g78
g59
NtRp2461
(dp2462
g62
(dp2463
sg71
g2448
sg64
(lp2464
g57
(g58
g59
NtRp2465
(dp2466
g62
(dp2467
g70
I5
ssg71
g2461
sg64
(lp2468
S'/home/ian/web2py/applications/blog/'
p2469
asbasbasbag57
(g73
g59
NtRp2470
(dp2471
g62
(dp2472
sg71
g67
sg64
(lp2473
g57
(g78
g59
NtRp2474
(dp2475
g62
(dp2476
g82
g83
ssg71
g2470
sg64
(lp2477
S'function'
p2478
asbag57
(g78
g59
NtRp2479
(dp2480
g62
(dp2481
g89
g90
ssg71
g2470
sg64
(lp2482
S':'
asbag57
(g78
g59
NtRp2483
(dp2484
g62
(dp2485
sg71
g2470
sg64
(lp2486
g57
(g58
g59
NtRp2487
(dp2488
g62
(dp2489
g70
I5
ssg71
g2483
sg64
(lp2490
S'user'
p2491
asbasbasbag57
(g73
g59
NtRp2492
(dp2493
g62
(dp2494
sg71
g67
sg64
(lp2495
g57
(g78
g59
NtRp2496
(dp2497
g62
(dp2498
g82
g83
ssg71
g2492
sg64
(lp2499
S'get_vars'
p2500
asbag57
(g78
g59
NtRp2501
(dp2502
g62
(dp2503
g89
g90
ssg71
g2492
sg64
(lp2504
S':'
asbag57
(g78
g59
NtRp2505
(dp2506
g62
(dp2507
sg71
g2492
sg64
(lp2508
g57
(g58
g59
NtRp2509
(dp2510
g62
(dp2511
g70
I5
ssg71
g2505
sg64
(lp2512
g57
(g66
g59
NtRp2513
(dp2514
g62
(dp2515
g70
I4
ssg71
Nsg64
(lp2516
sbasbasbasbag57
(g73
g59
NtRp2517
(dp2518
g62
(dp2519
sg71
g67
sg64
(lp2520
g57
(g78
g59
NtRp2521
(dp2522
g62
(dp2523
g82
g83
ssg71
g2517
sg64
(lp2524
S'global_settings'
p2525
asbag57
(g78
g59
NtRp2526
(dp2527
g62
(dp2528
g89
g90
ssg71
g2517
sg64
(lp2529
S':'
asbag57
(g78
g59
NtRp2530
(dp2531
g62
(dp2532
sg71
g2517
sg64
(lp2533
g57
(g58
g59
NtRp2534
(dp2535
g62
(dp2536
g70
I5
ssg71
g2530
sg64
(lp2537
g57
(g66
g59
NtRp2538
(dp2539
g62
(dp2540
g70
I4
ssg71
Nsg64
(lp2541
g57
(g73
g59
NtRp2542
(dp2543
g62
(dp2544
sg71
g2538
sg64
(lp2545
g57
(g78
g59
NtRp2546
(dp2547
g62
(dp2548
g82
g83
ssg71
g2542
sg64
(lp2549
g1402
asbag57
(g78
g59
NtRp2550
(dp2551
g62
(dp2552
g89
g90
ssg71
g2542
sg64
(lp2553
S':'
asbag57
(g78
g59
NtRp2554
(dp2555
g62
(dp2556
sg71
g2542
sg64
(lp2557
g57
(g58
g59
NtRp2558
(dp2559
g62
(dp2560
g70
I4
ssg71
g2554
sg64
(lp2561
S"set(['/home/ian/web2py/applications/topoi/', '/home/ian/web2py/applications/welcome/', '/home/ian/web2py/applications/blog/', '/home/ian/web2py/applications/admin/'])"
p2562
asbasbasbag57
(g73
g59
NtRp2563
(dp2564
g62
(dp2565
sg71
g2538
sg64
(lp2566
g57
(g78
g59
NtRp2567
(dp2568
g62
(dp2569
g82
g83
ssg71
g2563
sg64
(lp2570
g1424
asbag57
(g78
g59
NtRp2571
(dp2572
g62
(dp2573
g89
g90
ssg71
g2563
sg64
(lp2574
S':'
asbag57
(g78
g59
NtRp2575
(dp2576
g62
(dp2577
sg71
g2563
sg64
(lp2578
g57
(g58
g59
NtRp2579
(dp2580
g62
(dp2581
g70
I4
ssg71
g2575
sg64
(lp2582
g1437
asbasbasbag57
(g73
g59
NtRp2583
(dp2584
g62
(dp2585
sg71
g2538
sg64
(lp2586
g57
(g78
g59
NtRp2587
(dp2588
g62
(dp2589
g82
g83
ssg71
g2583
sg64
(lp2590
g1446
asbag57
(g78
g59
NtRp2591
(dp2592
g62
(dp2593
g89
g90
ssg71
g2583
sg64
(lp2594
S':'
asbag57
(g78
g59
NtRp2595
(dp2596
g62
(dp2597
sg71
g2583
sg64
(lp2598
g57
(g58
g59
NtRp2599
(dp2600
g62
(dp2601
g70
I4
ssg71
g2595
sg64
(lp2602
g57
(g66
g59
NtRp2603
(dp2604
g62
(dp2605
g70
I3
ssg71
Nsg64
(lp2606
sbasbasbasbag57
(g73
g59
NtRp2607
(dp2608
g62
(dp2609
sg71
g2538
sg64
(lp2610
g57
(g78
g59
NtRp2611
(dp2612
g62
(dp2613
g82
g83
ssg71
g2607
sg64
(lp2614
g1471
asbag57
(g78
g59
NtRp2615
(dp2616
g62
(dp2617
g89
g90
ssg71
g2607
sg64
(lp2618
S':'
asbag57
(g78
g59
NtRp2619
(dp2620
g62
(dp2621
sg71
g2607
sg64
(lp2622
g57
(g58
g59
NtRp2623
(dp2624
g62
(dp2625
g70
I4
ssg71
g2619
sg64
(lp2626
S"<Values at 0x1361b00: {'verbose': False, 'ip': '127.0.0.1', 'shutdown_timeout': 5, 'taskbar': False, 'nocron': False, 'pid_filename': 'httpserver.pid', 'maxthreads': None, 'softcron': False, 'server_name': 'Ariel-ubuntu', 'bpython': False, 'nogui': False, 'port': 8000, 'extcron': False, 'debuglevel': 30, 'test': None, 'folder': '/home/ian/web2py', 'config': '', 'import_models': False, 'winservice': '', 'shell': None, 'run': '', 'log_filename': 'httpserver.log', 'args': [''], 'socket_timeout': 1, 'ssl_ca_certificate': None, 'scheduler': None, 'profiler_filename': None, 'ssl_private_key': '', 'password': '<ask>', 'request_queue_size': 5, 'ssl_certificate': '', 'cronjob': False, 'numthreads': None, 'quiet': False, 'interfaces': None, 'minthreads': None, 'timeout': 10, 'plain': False, 'nobanner': False}>"
p2627
asbasbasbag57
(g73
g59
NtRp2628
(dp2629
g62
(dp2630
sg71
g2538
sg64
(lp2631
g57
(g78
g59
NtRp2632
(dp2633
g62
(dp2634
g82
g83
ssg71
g2628
sg64
(lp2635
g1537
asbag57
(g78
g59
NtRp2636
(dp2637
g62
(dp2638
g89
g90
ssg71
g2628
sg64
(lp2639
S':'
asbag57
(g78
g59
NtRp2640
(dp2641
g62
(dp2642
sg71
g2628
sg64
(lp2643
g57
(g58
g59
NtRp2644
(dp2645
g62
(dp2646
g70
I4
ssg71
g2640
sg64
(lp2647
S'set([])'
p2648
asbasbasbag57
(g73
g59
NtRp2649
(dp2650
g62
(dp2651
sg71
g2538
sg64
(lp2652
g57
(g78
g59
NtRp2653
(dp2654
g62
(dp2655
g82
g83
ssg71
g2649
sg64
(lp2656
g1559
asbag57
(g78
g59
NtRp2657
(dp2658
g62
(dp2659
g89
g90
ssg71
g2649
sg64
(lp2660
S':'
asbag57
(g78
g59
NtRp2661
(dp2662
g62
(dp2663
sg71
g2649
sg64
(lp2664
g57
(g58
g59
NtRp2665
(dp2666
g62
(dp2667
g70
I4
ssg71
g2661
sg64
(lp2668
g100
asbasbasbag57
(g73
g59
NtRp2669
(dp2670
g62
(dp2671
sg71
g2538
sg64
(lp2672
g57
(g78
g59
NtRp2673
(dp2674
g62
(dp2675
g82
g83
ssg71
g2669
sg64
(lp2676
g1580
asbag57
(g78
g59
NtRp2677
(dp2678
g62
(dp2679
g89
g90
ssg71
g2669
sg64
(lp2680
S':'
asbag57
(g78
g59
NtRp2681
(dp2682
g62
(dp2683
sg71
g2669
sg64
(lp2684
g57
(g58
g59
NtRp2685
(dp2686
g62
(dp2687
g70
I4
ssg71
g2681
sg64
(lp2688
g1593
asbasbasbag57
(g73
g59
NtRp2689
(dp2690
g62
(dp2691
sg71
g2538
sg64
(lp2692
g57
(g78
g59
NtRp2693
(dp2694
g62
(dp2695
g82
g83
ssg71
g2689
sg64
(lp2696
g1842
asbag57
(g78
g59
NtRp2697
(dp2698
g62
(dp2699
g89
g90
ssg71
g2689
sg64
(lp2700
S':'
asbag57
(g78
g59
NtRp2701
(dp2702
g62
(dp2703
sg71
g2689
sg64
(lp2704
g57
(g58
g59
NtRp2705
(dp2706
g62
(dp2707
g70
I4
ssg71
g2701
sg64
(lp2708
g100
asbasbasbag57
(g73
g59
NtRp2709
(dp2710
g62
(dp2711
sg71
g2538
sg64
(lp2712
g57
(g78
g59
NtRp2713
(dp2714
g62
(dp2715
g82
g83
ssg71
g2709
sg64
(lp2716
g1863
asbag57
(g78
g59
NtRp2717
(dp2718
g62
(dp2719
g89
g90
ssg71
g2709
sg64
(lp2720
S':'
asbag57
(g78
g59
NtRp2721
(dp2722
g62
(dp2723
sg71
g2709
sg64
(lp2724
g57
(g58
g59
NtRp2725
(dp2726
g62
(dp2727
g70
I4
ssg71
g2721
sg64
(lp2728
g100
asbasbasbag57
(g73
g59
NtRp2729
(dp2730
g62
(dp2731
sg71
g2538
sg64
(lp2732
g57
(g78
g59
NtRp2733
(dp2734
g62
(dp2735
g82
g83
ssg71
g2729
sg64
(lp2736
g2102
asbag57
(g78
g59
NtRp2737
(dp2738
g62
(dp2739
g89
g90
ssg71
g2729
sg64
(lp2740
S':'
asbag57
(g78
g59
NtRp2741
(dp2742
g62
(dp2743
sg71
g2729
sg64
(lp2744
g57
(g58
g59
NtRp2745
(dp2746
g62
(dp2747
g70
I4
ssg71
g2741
sg64
(lp2748
g2115
asbasbasbag57
(g73
g59
NtRp2749
(dp2750
g62
(dp2751
sg71
g2538
sg64
(lp2752
g57
(g78
g59
NtRp2753
(dp2754
g62
(dp2755
g82
g83
ssg71
g2749
sg64
(lp2756
g2145
asbag57
(g78
g59
NtRp2757
(dp2758
g62
(dp2759
g89
g90
ssg71
g2749
sg64
(lp2760
S':'
asbag57
(g78
g59
NtRp2761
(dp2762
g62
(dp2763
sg71
g2749
sg64
(lp2764
g57
(g58
g59
NtRp2765
(dp2766
g62
(dp2767
g70
I4
ssg71
g2761
sg64
(lp2768
g57
(g66
g59
NtRp2769
(dp2770
g62
(dp2771
g70
I3
ssg71
Nsg64
(lp2772
g57
(g73
g59
NtRp2773
(dp2774
g62
(dp2775
sg71
g2769
sg64
(lp2776
g57
(g78
g59
NtRp2777
(dp2778
g62
(dp2779
sg71
g2773
sg64
(lp2780
g57
(g58
g59
NtRp2781
(dp2782
g62
(dp2783
g70
I3
ssg71
g2777
sg64
(lp2784
S'1'
asbasbasbag57
(g73
g59
NtRp2785
(dp2786
g62
(dp2787
sg71
g2769
sg64
(lp2788
g57
(g78
g59
NtRp2789
(dp2790
g62
(dp2791
sg71
g2785
sg64
(lp2792
g57
(g58
g59
NtRp2793
(dp2794
g62
(dp2795
g70
I3
ssg71
g2789
sg64
(lp2796
S'99'
p2797
asbasbasbag57
(g73
g59
NtRp2798
(dp2799
g62
(dp2800
sg71
g2769
sg64
(lp2801
g57
(g78
g59
NtRp2802
(dp2803
g62
(dp2804
sg71
g2798
sg64
(lp2805
g57
(g58
g59
NtRp2806
(dp2807
g62
(dp2808
g70
I3
ssg71
g2802
sg64
(lp2809
S'4'
asbasbasbag57
(g73
g59
NtRp2810
(dp2811
g62
(dp2812
sg71
g2769
sg64
(lp2813
g57
(g78
g59
NtRp2814
(dp2815
g62
(dp2816
sg71
g2810
sg64
(lp2817
g57
(g58
g59
NtRp2818
(dp2819
g62
(dp2820
g70
I3
ssg71
g2814
sg64
(lp2821
S'datetime.datetime(2011, 12, 14, 14, 46, 14)'
p2822
asbasbasbag57
(g73
g59
NtRp2823
(dp2824
g62
(dp2825
sg71
g2769
sg64
(lp2826
g57
(g78
g59
NtRp2827
(dp2828
g62
(dp2829
sg71
g2823
sg64
(lp2830
g57
(g58
g59
NtRp2831
(dp2832
g62
(dp2833
g70
I3
ssg71
g2827
sg64
(lp2834
g2224
asbasbasbasbasbasbasbasbasbasbasbag57
(g73
g59
NtRp2835
(dp2836
g62
(dp2837
sg71
g67
sg64
(lp2838
g57
(g78
g59
NtRp2839
(dp2840
g62
(dp2841
g82
g83
ssg71
g2835
sg64
(lp2842
S'is_https'
p2843
asbag57
(g78
g59
NtRp2844
(dp2845
g62
(dp2846
g89
g90
ssg71
g2835
sg64
(lp2847
S':'
asbag57
(g78
g59
NtRp2848
(dp2849
g62
(dp2850
sg71
g2835
sg64
(lp2851
g57
(g58
g59
NtRp2852
(dp2853
g62
(dp2854
g70
I5
ssg71
g2848
sg64
(lp2855
g100
asbasbasbag57
(g73
g59
NtRp2856
(dp2857
g62
(dp2858
sg71
g67
sg64
(lp2859
g57
(g78
g59
NtRp2860
(dp2861
g62
(dp2862
g82
g83
ssg71
g2856
sg64
(lp2863
S'is_local'
p2864
asbag57
(g78
g59
NtRp2865
(dp2866
g62
(dp2867
g89
g90
ssg71
g2856
sg64
(lp2868
S':'
asbag57
(g78
g59
NtRp2869
(dp2870
g62
(dp2871
sg71
g2856
sg64
(lp2872
g57
(g58
g59
NtRp2873
(dp2874
g62
(dp2875
g70
I5
ssg71
g2869
sg64
(lp2876
g2333
asbasbasbag57
(g73
g59
NtRp2877
(dp2878
g62
(dp2879
sg71
g67
sg64
(lp2880
g57
(g78
g59
NtRp2881
(dp2882
g62
(dp2883
g82
g83
ssg71
g2877
sg64
(lp2884
S'is_restful'
p2885
asbag57
(g78
g59
NtRp2886
(dp2887
g62
(dp2888
g89
g90
ssg71
g2877
sg64
(lp2889
S':'
asbag57
(g78
g59
NtRp2890
(dp2891
g62
(dp2892
sg71
g2877
sg64
(lp2893
g57
(g58
g59
NtRp2894
(dp2895
g62
(dp2896
g70
I5
ssg71
g2890
sg64
(lp2897
g100
asbasbasbag57
(g73
g59
NtRp2898
(dp2899
g62
(dp2900
sg71
g67
sg64
(lp2901
g57
(g78
g59
NtRp2902
(dp2903
g62
(dp2904
g82
g83
ssg71
g2898
sg64
(lp2905
S'now'
p2906
asbag57
(g78
g59
NtRp2907
(dp2908
g62
(dp2909
g89
g90
ssg71
g2898
sg64
(lp2910
S':'
asbag57
(g78
g59
NtRp2911
(dp2912
g62
(dp2913
sg71
g2898
sg64
(lp2914
g57
(g58
g59
NtRp2915
(dp2916
g62
(dp2917
g70
I5
ssg71
g2911
sg64
(lp2918
S'datetime.datetime(2012, 1, 31, 20, 30, 46, 588860)'
p2919
asbasbasbag57
(g73
g59
NtRp2920
(dp2921
g62
(dp2922
sg71
g67
sg64
(lp2923
g57
(g78
g59
NtRp2924
(dp2925
g62
(dp2926
g82
g83
ssg71
g2920
sg64
(lp2927
S'post_vars'
p2928
asbag57
(g78
g59
NtRp2929
(dp2930
g62
(dp2931
g89
g90
ssg71
g2920
sg64
(lp2932
S':'
asbag57
(g78
g59
NtRp2933
(dp2934
g62
(dp2935
sg71
g2920
sg64
(lp2936
g57
(g58
g59
NtRp2937
(dp2938
g62
(dp2939
g70
I5
ssg71
g2933
sg64
(lp2940
g57
(g66
g59
NtRp2941
(dp2942
g62
(dp2943
g70
I4
ssg71
Nsg64
(lp2944
g57
(g73
g59
NtRp2945
(dp2946
g62
(dp2947
sg71
g2941
sg64
(lp2948
g57
(g78
g59
NtRp2949
(dp2950
g62
(dp2951
g82
g83
ssg71
g2945
sg64
(lp2952
S'email'
p2953
asbag57
(g78
g59
NtRp2954
(dp2955
g62
(dp2956
g89
g90
ssg71
g2945
sg64
(lp2957
S':'
asbag57
(g78
g59
NtRp2958
(dp2959
g62
(dp2960
sg71
g2945
sg64
(lp2961
g57
(g58
g59
NtRp2962
(dp2963
g62
(dp2964
g70
I4
ssg71
g2958
sg64
(lp2965
S'scottianw@gmail.com'
p2966
asbasbasbag57
(g73
g59
NtRp2967
(dp2968
g62
(dp2969
sg71
g2941
sg64
(lp2970
g57
(g78
g59
NtRp2971
(dp2972
g62
(dp2973
g82
g83
ssg71
g2967
sg64
(lp2974
S'first_name'
p2975
asbag57
(g78
g59
NtRp2976
(dp2977
g62
(dp2978
g89
g90
ssg71
g2967
sg64
(lp2979
S':'
asbag57
(g78
g59
NtRp2980
(dp2981
g62
(dp2982
sg71
g2967
sg64
(lp2983
g57
(g58
g59
NtRp2984
(dp2985
g62
(dp2986
g70
I4
ssg71
g2980
sg64
(lp2987
S'Ian'
p2988
asbasbasbag57
(g73
g59
NtRp2989
(dp2990
g62
(dp2991
sg71
g2941
sg64
(lp2992
g57
(g78
g59
NtRp2993
(dp2994
g62
(dp2995
g82
g83
ssg71
g2989
sg64
(lp2996
S'last_name'
p2997
asbag57
(g78
g59
NtRp2998
(dp2999
g62
(dp3000
g89
g90
ssg71
g2989
sg64
(lp3001
S':'
asbag57
(g78
g59
NtRp3002
(dp3003
g62
(dp3004
sg71
g2989
sg64
(lp3005
g57
(g58
g59
NtRp3006
(dp3007
g62
(dp3008
g70
I4
ssg71
g3002
sg64
(lp3009
S'Scott'
p3010
asbasbasbag57
(g73
g59
NtRp3011
(dp3012
g62
(dp3013
sg71
g2941
sg64
(lp3014
g57
(g78
g59
NtRp3015
(dp3016
g62
(dp3017
g82
g83
ssg71
g3011
sg64
(lp3018
S'password'
p3019
asbag57
(g78
g59
NtRp3020
(dp3021
g62
(dp3022
g89
g90
ssg71
g3011
sg64
(lp3023
S':'
asbag57
(g78
g59
NtRp3024
(dp3025
g62
(dp3026
sg71
g3011
sg64
(lp3027
g57
(g58
g59
NtRp3028
(dp3029
g62
(dp3030
g70
I4
ssg71
g3024
sg64
(lp3031
S'p1o2lanyimeteor2003'
p3032
asbasbasbag57
(g73
g59
NtRp3033
(dp3034
g62
(dp3035
sg71
g2941
sg64
(lp3036
g57
(g78
g59
NtRp3037
(dp3038
g62
(dp3039
g82
g83
ssg71
g3033
sg64
(lp3040
S'password_two'
p3041
asbag57
(g78
g59
NtRp3042
(dp3043
g62
(dp3044
g89
g90
ssg71
g3033
sg64
(lp3045
S':'
asbag57
(g78
g59
NtRp3046
(dp3047
g62
(dp3048
sg71
g3033
sg64
(lp3049
g57
(g58
g59
NtRp3050
(dp3051
g62
(dp3052
g70
I4
ssg71
g3046
sg64
(lp3053
S'p1o2lanyimeteor2003'
p3054
asbasbasbasbasbasbasbag57
(g73
g59
NtRp3055
(dp3056
g62
(dp3057
sg71
g67
sg64
(lp3058
g57
(g78
g59
NtRp3059
(dp3060
g62
(dp3061
g82
g83
ssg71
g3055
sg64
(lp3062
S'raw_args'
p3063
asbag57
(g78
g59
NtRp3064
(dp3065
g62
(dp3066
g89
g90
ssg71
g3055
sg64
(lp3067
S':'
asbag57
(g78
g59
NtRp3068
(dp3069
g62
(dp3070
sg71
g3055
sg64
(lp3071
g57
(g58
g59
NtRp3072
(dp3073
g62
(dp3074
g70
I5
ssg71
g3068
sg64
(lp3075
g159
asbasbasbag57
(g73
g59
NtRp3076
(dp3077
g62
(dp3078
sg71
g67
sg64
(lp3079
g57
(g78
g59
NtRp3080
(dp3081
g62
(dp3082
g82
g83
ssg71
g3076
sg64
(lp3083
S'url'
p3084
asbag57
(g78
g59
NtRp3085
(dp3086
g62
(dp3087
g89
g90
ssg71
g3076
sg64
(lp3088
S':'
asbag57
(g78
g59
NtRp3089
(dp3090
g62
(dp3091
sg71
g3076
sg64
(lp3092
g57
(g58
g59
NtRp3093
(dp3094
g62
(dp3095
g70
I5
ssg71
g3089
sg64
(lp3096
S'/blog/default/user/register'
p3097
asbasbasbag57
(g73
g59
NtRp3098
(dp3099
g62
(dp3100
sg71
g67
sg64
(lp3101
g57
(g78
g59
NtRp3102
(dp3103
g62
(dp3104
g82
g83
ssg71
g3098
sg64
(lp3105
S'utcnow'
p3106
asbag57
(g78
g59
NtRp3107
(dp3108
g62
(dp3109
g89
g90
ssg71
g3098
sg64
(lp3110
S':'
asbag57
(g78
g59
NtRp3111
(dp3112
g62
(dp3113
sg71
g3098
sg64
(lp3114
g57
(g58
g59
NtRp3115
(dp3116
g62
(dp3117
g70
I5
ssg71
g3111
sg64
(lp3118
S'datetime.datetime(2012, 2, 1, 1, 30, 46, 588903)'
p3119
asbasbasbag57
(g73
g59
NtRp3120
(dp3121
g62
(dp3122
sg71
g67
sg64
(lp3123
g57
(g78
g59
NtRp3124
(dp3125
g62
(dp3126
g82
g83
ssg71
g3120
sg64
(lp3127
S'uuid'
p3128
asbag57
(g78
g59
NtRp3129
(dp3130
g62
(dp3131
g89
g90
ssg71
g3120
sg64
(lp3132
S':'
asbag57
(g78
g59
NtRp3133
(dp3134
g62
(dp3135
sg71
g3120
sg64
(lp3136
g57
(g58
g59
NtRp3137
(dp3138
g62
(dp3139
g70
I5
ssg71
g3133
sg64
(lp3140
S'blog/127.0.0.1.2012-01-31.20-30-46.29e97c6c-6b34-41ad-b7c3-c20047c7aac8'
p3141
asbasbasbag57
(g73
g59
NtRp3142
(dp3143
g62
(dp3144
sg71
g67
sg64
(lp3145
g57
(g78
g59
NtRp3146
(dp3147
g62
(dp3148
g82
g83
ssg71
g3142
sg64
(lp3149
S'vars'
p3150
asbag57
(g78
g59
NtRp3151
(dp3152
g62
(dp3153
g89
g90
ssg71
g3142
sg64
(lp3154
S':'
asbag57
(g78
g59
NtRp3155
(dp3156
g62
(dp3157
sg71
g3142
sg64
(lp3158
g57
(g58
g59
NtRp3159
(dp3160
g62
(dp3161
g70
I5
ssg71
g3155
sg64
(lp3162
g57
(g66
g59
NtRp3163
(dp3164
g62
(dp3165
g70
I4
ssg71
Nsg64
(lp3166
g57
(g73
g59
NtRp3167
(dp3168
g62
(dp3169
sg71
g3163
sg64
(lp3170
g57
(g78
g59
NtRp3171
(dp3172
g62
(dp3173
g82
g83
ssg71
g3167
sg64
(lp3174
g2953
asbag57
(g78
g59
NtRp3175
(dp3176
g62
(dp3177
g89
g90
ssg71
g3167
sg64
(lp3178
S':'
asbag57
(g78
g59
NtRp3179
(dp3180
g62
(dp3181
sg71
g3167
sg64
(lp3182
g57
(g58
g59
NtRp3183
(dp3184
g62
(dp3185
g70
I4
ssg71
g3179
sg64
(lp3186
g2966
asbasbasbag57
(g73
g59
NtRp3187
(dp3188
g62
(dp3189
sg71
g3163
sg64
(lp3190
g57
(g78
g59
NtRp3191
(dp3192
g62
(dp3193
g82
g83
ssg71
g3187
sg64
(lp3194
g2975
asbag57
(g78
g59
NtRp3195
(dp3196
g62
(dp3197
g89
g90
ssg71
g3187
sg64
(lp3198
S':'
asbag57
(g78
g59
NtRp3199
(dp3200
g62
(dp3201
sg71
g3187
sg64
(lp3202
g57
(g58
g59
NtRp3203
(dp3204
g62
(dp3205
g70
I4
ssg71
g3199
sg64
(lp3206
g2988
asbasbasbag57
(g73
g59
NtRp3207
(dp3208
g62
(dp3209
sg71
g3163
sg64
(lp3210
g57
(g78
g59
NtRp3211
(dp3212
g62
(dp3213
g82
g83
ssg71
g3207
sg64
(lp3214
g2997
asbag57
(g78
g59
NtRp3215
(dp3216
g62
(dp3217
g89
g90
ssg71
g3207
sg64
(lp3218
S':'
asbag57
(g78
g59
NtRp3219
(dp3220
g62
(dp3221
sg71
g3207
sg64
(lp3222
g57
(g58
g59
NtRp3223
(dp3224
g62
(dp3225
g70
I4
ssg71
g3219
sg64
(lp3226
g3010
asbasbasbag57
(g73
g59
NtRp3227
(dp3228
g62
(dp3229
sg71
g3163
sg64
(lp3230
g57
(g78
g59
NtRp3231
(dp3232
g62
(dp3233
g82
g83
ssg71
g3227
sg64
(lp3234
g3019
asbag57
(g78
g59
NtRp3235
(dp3236
g62
(dp3237
g89
g90
ssg71
g3227
sg64
(lp3238
S':'
asbag57
(g78
g59
NtRp3239
(dp3240
g62
(dp3241
sg71
g3227
sg64
(lp3242
g57
(g58
g59
NtRp3243
(dp3244
g62
(dp3245
g70
I4
ssg71
g3239
sg64
(lp3246
g3032
asbasbasbag57
(g73
g59
NtRp3247
(dp3248
g62
(dp3249
sg71
g3163
sg64
(lp3250
g57
(g78
g59
NtRp3251
(dp3252
g62
(dp3253
g82
g83
ssg71
g3247
sg64
(lp3254
g3041
asbag57
(g78
g59
NtRp3255
(dp3256
g62
(dp3257
g89
g90
ssg71
g3247
sg64
(lp3258
S':'
asbag57
(g78
g59
NtRp3259
(dp3260
g62
(dp3261
sg71
g3247
sg64
(lp3262
g57
(g58
g59
NtRp3263
(dp3264
g62
(dp3265
g70
I4
ssg71
g3259
sg64
(lp3266
g3054
asbasbasbasbasbasbasbag57
(g73
g59
NtRp3267
(dp3268
g62
(dp3269
sg71
g67
sg64
(lp3270
g57
(g78
g59
NtRp3271
(dp3272
g62
(dp3273
g82
g83
ssg71
g3267
sg64
(lp3274
S'wsgi'
p3275
asbag57
(g78
g59
NtRp3276
(dp3277
g62
(dp3278
g89
g90
ssg71
g3267
sg64
(lp3279
S':'
asbag57
(g78
g59
NtRp3280
(dp3281
g62
(dp3282
sg71
g3267
sg64
(lp3283
g57
(g58
g59
NtRp3284
(dp3285
g62
(dp3286
g70
I5
ssg71
g3280
sg64
(lp3287
g57
(g66
g59
NtRp3288
(dp3289
g62
(dp3290
g70
I4
ssg71
Nsg64
(lp3291
g57
(g73
g59
NtRp3292
(dp3293
g62
(dp3294
sg71
g3288
sg64
(lp3295
g57
(g78
g59
NtRp3296
(dp3297
g62
(dp3298
g82
g83
ssg71
g3292
sg64
(lp3299
S'environ'
p3300
asbag57
(g78
g59
NtRp3301
(dp3302
g62
(dp3303
g89
g90
ssg71
g3292
sg64
(lp3304
S':'
asbag57
(g78
g59
NtRp3305
(dp3306
g62
(dp3307
sg71
g3292
sg64
(lp3308
g57
(g58
g59
NtRp3309
(dp3310
g62
(dp3311
g70
I4
ssg71
g3305
sg64
(lp3312
g57
(g66
g59
NtRp3313
(dp3314
g62
(dp3315
g70
I3
ssg71
Nsg64
(lp3316
g57
(g73
g59
NtRp3317
(dp3318
g62
(dp3319
sg71
g3313
sg64
(lp3320
g57
(g78
g59
NtRp3321
(dp3322
g62
(dp3323
g82
g83
ssg71
g3317
sg64
(lp3324
S'CONTENT_LENGTH'
p3325
asbag57
(g78
g59
NtRp3326
(dp3327
g62
(dp3328
g89
g90
ssg71
g3317
sg64
(lp3329
S':'
asbag57
(g78
g59
NtRp3330
(dp3331
g62
(dp3332
sg71
g3317
sg64
(lp3333
g57
(g58
g59
NtRp3334
(dp3335
g62
(dp3336
g70
I3
ssg71
g3330
sg64
(lp3337
g1506
asbasbasbag57
(g73
g59
NtRp3338
(dp3339
g62
(dp3340
sg71
g3313
sg64
(lp3341
g57
(g78
g59
NtRp3342
(dp3343
g62
(dp3344
g82
g83
ssg71
g3338
sg64
(lp3345
S'CONTENT_TYPE'
p3346
asbag57
(g78
g59
NtRp3347
(dp3348
g62
(dp3349
g89
g90
ssg71
g3338
sg64
(lp3350
S':'
asbag57
(g78
g59
NtRp3351
(dp3352
g62
(dp3353
sg71
g3338
sg64
(lp3354
g57
(g58
g59
NtRp3355
(dp3356
g62
(dp3357
g70
I3
ssg71
g3351
sg64
(lp3358
g1528
asbasbasbag57
(g73
g59
NtRp3359
(dp3360
g62
(dp3361
sg71
g3313
sg64
(lp3362
g57
(g78
g59
NtRp3363
(dp3364
g62
(dp3365
g82
g83
ssg71
g3359
sg64
(lp3366
S'HTTP_ACCEPT'
p3367
asbag57
(g78
g59
NtRp3368
(dp3369
g62
(dp3370
g89
g90
ssg71
g3359
sg64
(lp3371
S':'
asbag57
(g78
g59
NtRp3372
(dp3373
g62
(dp3374
sg71
g3359
sg64
(lp3375
g57
(g58
g59
NtRp3376
(dp3377
g62
(dp3378
g70
I3
ssg71
g3372
sg64
(lp3379
g1615
asbasbasbag57
(g73
g59
NtRp3380
(dp3381
g62
(dp3382
sg71
g3313
sg64
(lp3383
g57
(g78
g59
NtRp3384
(dp3385
g62
(dp3386
g82
g83
ssg71
g3380
sg64
(lp3387
S'HTTP_ACCEPT_CHARSET'
p3388
asbag57
(g78
g59
NtRp3389
(dp3390
g62
(dp3391
g89
g90
ssg71
g3380
sg64
(lp3392
S':'
asbag57
(g78
g59
NtRp3393
(dp3394
g62
(dp3395
sg71
g3380
sg64
(lp3396
g57
(g58
g59
NtRp3397
(dp3398
g62
(dp3399
g70
I3
ssg71
g3393
sg64
(lp3400
g1637
asbasbasbag57
(g73
g59
NtRp3401
(dp3402
g62
(dp3403
sg71
g3313
sg64
(lp3404
g57
(g78
g59
NtRp3405
(dp3406
g62
(dp3407
g82
g83
ssg71
g3401
sg64
(lp3408
S'HTTP_ACCEPT_ENCODING'
p3409
asbag57
(g78
g59
NtRp3410
(dp3411
g62
(dp3412
g89
g90
ssg71
g3401
sg64
(lp3413
S':'
asbag57
(g78
g59
NtRp3414
(dp3415
g62
(dp3416
sg71
g3401
sg64
(lp3417
g57
(g58
g59
NtRp3418
(dp3419
g62
(dp3420
g70
I3
ssg71
g3414
sg64
(lp3421
g1659
asbasbasbag57
(g73
g59
NtRp3422
(dp3423
g62
(dp3424
sg71
g3313
sg64
(lp3425
g57
(g78
g59
NtRp3426
(dp3427
g62
(dp3428
g82
g83
ssg71
g3422
sg64
(lp3429
S'HTTP_ACCEPT_LANGUAGE'
p3430
asbag57
(g78
g59
NtRp3431
(dp3432
g62
(dp3433
g89
g90
ssg71
g3422
sg64
(lp3434
S':'
asbag57
(g78
g59
NtRp3435
(dp3436
g62
(dp3437
sg71
g3422
sg64
(lp3438
g57
(g58
g59
NtRp3439
(dp3440
g62
(dp3441
g70
I3
ssg71
g3435
sg64
(lp3442
g1681
asbasbasbag57
(g73
g59
NtRp3443
(dp3444
g62
(dp3445
sg71
g3313
sg64
(lp3446
g57
(g78
g59
NtRp3447
(dp3448
g62
(dp3449
g82
g83
ssg71
g3443
sg64
(lp3450
S'HTTP_CONNECTION'
p3451
asbag57
(g78
g59
NtRp3452
(dp3453
g62
(dp3454
g89
g90
ssg71
g3443
sg64
(lp3455
S':'
asbag57
(g78
g59
NtRp3456
(dp3457
g62
(dp3458
sg71
g3443
sg64
(lp3459
g57
(g58
g59
NtRp3460
(dp3461
g62
(dp3462
g70
I3
ssg71
g3456
sg64
(lp3463
g1703
asbasbasbag57
(g73
g59
NtRp3464
(dp3465
g62
(dp3466
sg71
g3313
sg64
(lp3467
g57
(g78
g59
NtRp3468
(dp3469
g62
(dp3470
g82
g83
ssg71
g3464
sg64
(lp3471
S'HTTP_CONTENT_LENGTH'
p3472
asbag57
(g78
g59
NtRp3473
(dp3474
g62
(dp3475
g89
g90
ssg71
g3464
sg64
(lp3476
S':'
asbag57
(g78
g59
NtRp3477
(dp3478
g62
(dp3479
sg71
g3464
sg64
(lp3480
g57
(g58
g59
NtRp3481
(dp3482
g62
(dp3483
g70
I3
ssg71
g3477
sg64
(lp3484
g1506
asbasbasbag57
(g73
g59
NtRp3485
(dp3486
g62
(dp3487
sg71
g3313
sg64
(lp3488
g57
(g78
g59
NtRp3489
(dp3490
g62
(dp3491
g82
g83
ssg71
g3485
sg64
(lp3492
S'HTTP_CONTENT_TYPE'
p3493
asbag57
(g78
g59
NtRp3494
(dp3495
g62
(dp3496
g89
g90
ssg71
g3485
sg64
(lp3497
S':'
asbag57
(g78
g59
NtRp3498
(dp3499
g62
(dp3500
sg71
g3485
sg64
(lp3501
g57
(g58
g59
NtRp3502
(dp3503
g62
(dp3504
g70
I3
ssg71
g3498
sg64
(lp3505
g1528
asbasbasbag57
(g73
g59
NtRp3506
(dp3507
g62
(dp3508
sg71
g3313
sg64
(lp3509
g57
(g78
g59
NtRp3510
(dp3511
g62
(dp3512
g82
g83
ssg71
g3506
sg64
(lp3513
S'HTTP_COOKIE'
p3514
asbag57
(g78
g59
NtRp3515
(dp3516
g62
(dp3517
g89
g90
ssg71
g3506
sg64
(lp3518
S':'
asbag57
(g78
g59
NtRp3519
(dp3520
g62
(dp3521
sg71
g3506
sg64
(lp3522
g57
(g58
g59
NtRp3523
(dp3524
g62
(dp3525
g70
I3
ssg71
g3519
sg64
(lp3526
g1767
asbasbasbag57
(g73
g59
NtRp3527
(dp3528
g62
(dp3529
sg71
g3313
sg64
(lp3530
g57
(g78
g59
NtRp3531
(dp3532
g62
(dp3533
g82
g83
ssg71
g3527
sg64
(lp3534
S'HTTP_HOST'
p3535
asbag57
(g78
g59
NtRp3536
(dp3537
g62
(dp3538
g89
g90
ssg71
g3527
sg64
(lp3539
S':'
asbag57
(g78
g59
NtRp3540
(dp3541
g62
(dp3542
sg71
g3527
sg64
(lp3543
g57
(g58
g59
NtRp3544
(dp3545
g62
(dp3546
g70
I3
ssg71
g3540
sg64
(lp3547
g1789
asbasbasbag57
(g73
g59
NtRp3548
(dp3549
g62
(dp3550
sg71
g3313
sg64
(lp3551
g57
(g78
g59
NtRp3552
(dp3553
g62
(dp3554
g82
g83
ssg71
g3548
sg64
(lp3555
S'HTTP_REFERER'
p3556
asbag57
(g78
g59
NtRp3557
(dp3558
g62
(dp3559
g89
g90
ssg71
g3548
sg64
(lp3560
S':'
asbag57
(g78
g59
NtRp3561
(dp3562
g62
(dp3563
sg71
g3548
sg64
(lp3564
g57
(g58
g59
NtRp3565
(dp3566
g62
(dp3567
g70
I3
ssg71
g3561
sg64
(lp3568
g1811
asbasbasbag57
(g73
g59
NtRp3569
(dp3570
g62
(dp3571
sg71
g3313
sg64
(lp3572
g57
(g78
g59
NtRp3573
(dp3574
g62
(dp3575
g82
g83
ssg71
g3569
sg64
(lp3576
S'HTTP_USER_AGENT'
p3577
asbag57
(g78
g59
NtRp3578
(dp3579
g62
(dp3580
g89
g90
ssg71
g3569
sg64
(lp3581
S':'
asbag57
(g78
g59
NtRp3582
(dp3583
g62
(dp3584
sg71
g3569
sg64
(lp3585
g57
(g58
g59
NtRp3586
(dp3587
g62
(dp3588
g70
I3
ssg71
g3582
sg64
(lp3589
g1833
asbasbasbag57
(g73
g59
NtRp3590
(dp3591
g62
(dp3592
sg71
g3313
sg64
(lp3593
g57
(g78
g59
NtRp3594
(dp3595
g62
(dp3596
g82
g83
ssg71
g3590
sg64
(lp3597
S'PATH_INFO'
p3598
asbag57
(g78
g59
NtRp3599
(dp3600
g62
(dp3601
g89
g90
ssg71
g3590
sg64
(lp3602
S':'
asbag57
(g78
g59
NtRp3603
(dp3604
g62
(dp3605
sg71
g3590
sg64
(lp3606
g57
(g58
g59
NtRp3607
(dp3608
g62
(dp3609
g70
I3
ssg71
g3603
sg64
(lp3610
g1897
asbasbasbag57
(g73
g59
NtRp3611
(dp3612
g62
(dp3613
sg71
g3313
sg64
(lp3614
g57
(g78
g59
NtRp3615
(dp3616
g62
(dp3617
g82
g83
ssg71
g3611
sg64
(lp3618
S'QUERY_STRING'
p3619
asbag57
(g78
g59
NtRp3620
(dp3621
g62
(dp3622
g89
g90
ssg71
g3611
sg64
(lp3623
S':'
asbag57
(g78
g59
NtRp3624
(dp3625
g62
(dp3626
sg71
g3611
sg64
(lp3627
g57
(g58
g59
NtRp3628
(dp3629
g62
(dp3630
g70
I3
ssg71
g3624
sg64
(lp3631
g1919
asbasbasbag57
(g73
g59
NtRp3632
(dp3633
g62
(dp3634
sg71
g3313
sg64
(lp3635
g57
(g78
g59
NtRp3636
(dp3637
g62
(dp3638
g82
g83
ssg71
g3632
sg64
(lp3639
S'REMOTE_ADDR'
p3640
asbag57
(g78
g59
NtRp3641
(dp3642
g62
(dp3643
g89
g90
ssg71
g3632
sg64
(lp3644
S':'
asbag57
(g78
g59
NtRp3645
(dp3646
g62
(dp3647
sg71
g3632
sg64
(lp3648
g57
(g58
g59
NtRp3649
(dp3650
g62
(dp3651
g70
I3
ssg71
g3645
sg64
(lp3652
g203
asbasbasbag57
(g73
g59
NtRp3653
(dp3654
g62
(dp3655
sg71
g3313
sg64
(lp3656
g57
(g78
g59
NtRp3657
(dp3658
g62
(dp3659
g82
g83
ssg71
g3653
sg64
(lp3660
S'REMOTE_PORT'
p3661
asbag57
(g78
g59
NtRp3662
(dp3663
g62
(dp3664
g89
g90
ssg71
g3653
sg64
(lp3665
S':'
asbag57
(g78
g59
NtRp3666
(dp3667
g62
(dp3668
sg71
g3653
sg64
(lp3669
g57
(g58
g59
NtRp3670
(dp3671
g62
(dp3672
g70
I3
ssg71
g3666
sg64
(lp3673
g1962
asbasbasbag57
(g73
g59
NtRp3674
(dp3675
g62
(dp3676
sg71
g3313
sg64
(lp3677
g57
(g78
g59
NtRp3678
(dp3679
g62
(dp3680
g82
g83
ssg71
g3674
sg64
(lp3681
S'REQUEST_METHOD'
p3682
asbag57
(g78
g59
NtRp3683
(dp3684
g62
(dp3685
g89
g90
ssg71
g3674
sg64
(lp3686
S':'
asbag57
(g78
g59
NtRp3687
(dp3688
g62
(dp3689
sg71
g3674
sg64
(lp3690
g57
(g58
g59
NtRp3691
(dp3692
g62
(dp3693
g70
I3
ssg71
g3687
sg64
(lp3694
g1984
asbasbasbag57
(g73
g59
NtRp3695
(dp3696
g62
(dp3697
sg71
g3313
sg64
(lp3698
g57
(g78
g59
NtRp3699
(dp3700
g62
(dp3701
g82
g83
ssg71
g3695
sg64
(lp3702
S'SCRIPT_NAME'
p3703
asbag57
(g78
g59
NtRp3704
(dp3705
g62
(dp3706
g89
g90
ssg71
g3695
sg64
(lp3707
S':'
asbag57
(g78
g59
NtRp3708
(dp3709
g62
(dp3710
sg71
g3695
sg64
(lp3711
g57
(g58
g59
NtRp3712
(dp3713
g62
(dp3714
g70
I3
ssg71
g3708
sg64
(lp3715
S''
asbasbasbag57
(g73
g59
NtRp3716
(dp3717
g62
(dp3718
sg71
g3313
sg64
(lp3719
g57
(g78
g59
NtRp3720
(dp3721
g62
(dp3722
g82
g83
ssg71
g3716
sg64
(lp3723
S'SERVER_NAME'
p3724
asbag57
(g78
g59
NtRp3725
(dp3726
g62
(dp3727
g89
g90
ssg71
g3716
sg64
(lp3728
S':'
asbag57
(g78
g59
NtRp3729
(dp3730
g62
(dp3731
sg71
g3716
sg64
(lp3732
g57
(g58
g59
NtRp3733
(dp3734
g62
(dp3735
g70
I3
ssg71
g3729
sg64
(lp3736
g2027
asbasbasbag57
(g73
g59
NtRp3737
(dp3738
g62
(dp3739
sg71
g3313
sg64
(lp3740
g57
(g78
g59
NtRp3741
(dp3742
g62
(dp3743
g82
g83
ssg71
g3737
sg64
(lp3744
S'SERVER_PORT'
p3745
asbag57
(g78
g59
NtRp3746
(dp3747
g62
(dp3748
g89
g90
ssg71
g3737
sg64
(lp3749
S':'
asbag57
(g78
g59
NtRp3750
(dp3751
g62
(dp3752
sg71
g3737
sg64
(lp3753
g57
(g58
g59
NtRp3754
(dp3755
g62
(dp3756
g70
I3
ssg71
g3750
sg64
(lp3757
g2049
asbasbasbag57
(g73
g59
NtRp3758
(dp3759
g62
(dp3760
sg71
g3313
sg64
(lp3761
g57
(g78
g59
NtRp3762
(dp3763
g62
(dp3764
g82
g83
ssg71
g3758
sg64
(lp3765
S'SERVER_PROTOCOL'
p3766
asbag57
(g78
g59
NtRp3767
(dp3768
g62
(dp3769
g89
g90
ssg71
g3758
sg64
(lp3770
S':'
asbag57
(g78
g59
NtRp3771
(dp3772
g62
(dp3773
sg71
g3758
sg64
(lp3774
g57
(g58
g59
NtRp3775
(dp3776
g62
(dp3777
g70
I3
ssg71
g3771
sg64
(lp3778
g2071
asbasbasbag57
(g73
g59
NtRp3779
(dp3780
g62
(dp3781
sg71
g3313
sg64
(lp3782
g57
(g78
g59
NtRp3783
(dp3784
g62
(dp3785
g82
g83
ssg71
g3779
sg64
(lp3786
S'SERVER_SOFTWARE'
p3787
asbag57
(g78
g59
NtRp3788
(dp3789
g62
(dp3790
g89
g90
ssg71
g3779
sg64
(lp3791
S':'
asbag57
(g78
g59
NtRp3792
(dp3793
g62
(dp3794
sg71
g3779
sg64
(lp3795
g57
(g58
g59
NtRp3796
(dp3797
g62
(dp3798
g70
I3
ssg71
g3792
sg64
(lp3799
g2093
asbasbasbag57
(g73
g59
NtRp3800
(dp3801
g62
(dp3802
sg71
g3313
sg64
(lp3803
g57
(g78
g59
NtRp3804
(dp3805
g62
(dp3806
g82
g83
ssg71
g3800
sg64
(lp3807
S'wsgi.errors'
p3808
asbag57
(g78
g59
NtRp3809
(dp3810
g62
(dp3811
g89
g90
ssg71
g3800
sg64
(lp3812
S':'
asbag57
(g78
g59
NtRp3813
(dp3814
g62
(dp3815
sg71
g3800
sg64
(lp3816
g57
(g58
g59
NtRp3817
(dp3818
g62
(dp3819
g70
I3
ssg71
g3813
sg64
(lp3820
S"<open file '<stderr>', mode 'w' at 0x7f67b8508270>"
p3821
asbasbasbag57
(g73
g59
NtRp3822
(dp3823
g62
(dp3824
sg71
g3313
sg64
(lp3825
g57
(g78
g59
NtRp3826
(dp3827
g62
(dp3828
g82
g83
ssg71
g3822
sg64
(lp3829
S'wsgi.file_wrapper'
p3830
asbag57
(g78
g59
NtRp3831
(dp3832
g62
(dp3833
g89
g90
ssg71
g3822
sg64
(lp3834
S':'
asbag57
(g78
g59
NtRp3835
(dp3836
g62
(dp3837
sg71
g3822
sg64
(lp3838
g57
(g58
g59
NtRp3839
(dp3840
g62
(dp3841
g70
I3
ssg71
g3835
sg64
(lp3842
S'<class wsgiref.util.FileWrapper at 0x121ec80>'
p3843
asbasbasbag57
(g73
g59
NtRp3844
(dp3845
g62
(dp3846
sg71
g3313
sg64
(lp3847
g57
(g78
g59
NtRp3848
(dp3849
g62
(dp3850
g82
g83
ssg71
g3844
sg64
(lp3851
S'wsgi.input'
p3852
asbag57
(g78
g59
NtRp3853
(dp3854
g62
(dp3855
g89
g90
ssg71
g3844
sg64
(lp3856
S':'
asbag57
(g78
g59
NtRp3857
(dp3858
g62
(dp3859
sg71
g3844
sg64
(lp3860
g57
(g58
g59
NtRp3861
(dp3862
g62
(dp3863
g70
I3
ssg71
g3857
sg64
(lp3864
S"<open file '<fdopen>', mode 'w+b' at 0x1ac5c00>"
p3865
asbasbasbag57
(g73
g59
NtRp3866
(dp3867
g62
(dp3868
sg71
g3313
sg64
(lp3869
g57
(g78
g59
NtRp3870
(dp3871
g62
(dp3872
g82
g83
ssg71
g3866
sg64
(lp3873
S'wsgi.multiprocess'
p3874
asbag57
(g78
g59
NtRp3875
(dp3876
g62
(dp3877
g89
g90
ssg71
g3866
sg64
(lp3878
S':'
asbag57
(g78
g59
NtRp3879
(dp3880
g62
(dp3881
sg71
g3866
sg64
(lp3882
g57
(g58
g59
NtRp3883
(dp3884
g62
(dp3885
g70
I3
ssg71
g3879
sg64
(lp3886
g100
asbasbasbag57
(g73
g59
NtRp3887
(dp3888
g62
(dp3889
sg71
g3313
sg64
(lp3890
g57
(g78
g59
NtRp3891
(dp3892
g62
(dp3893
g82
g83
ssg71
g3887
sg64
(lp3894
S'wsgi.multithread'
p3895
asbag57
(g78
g59
NtRp3896
(dp3897
g62
(dp3898
g89
g90
ssg71
g3887
sg64
(lp3899
S':'
asbag57
(g78
g59
NtRp3900
(dp3901
g62
(dp3902
sg71
g3887
sg64
(lp3903
g57
(g58
g59
NtRp3904
(dp3905
g62
(dp3906
g70
I3
ssg71
g3900
sg64
(lp3907
g2333
asbasbasbag57
(g73
g59
NtRp3908
(dp3909
g62
(dp3910
sg71
g3313
sg64
(lp3911
g57
(g78
g59
NtRp3912
(dp3913
g62
(dp3914
g82
g83
ssg71
g3908
sg64
(lp3915
S'wsgi.run_once'
p3916
asbag57
(g78
g59
NtRp3917
(dp3918
g62
(dp3919
g89
g90
ssg71
g3908
sg64
(lp3920
S':'
asbag57
(g78
g59
NtRp3921
(dp3922
g62
(dp3923
sg71
g3908
sg64
(lp3924
g57
(g58
g59
NtRp3925
(dp3926
g62
(dp3927
g70
I3
ssg71
g3921
sg64
(lp3928
g100
asbasbasbag57
(g73
g59
NtRp3929
(dp3930
g62
(dp3931
sg71
g3313
sg64
(lp3932
g57
(g78
g59
NtRp3933
(dp3934
g62
(dp3935
g82
g83
ssg71
g3929
sg64
(lp3936
S'wsgi.url_scheme'
p3937
asbag57
(g78
g59
NtRp3938
(dp3939
g62
(dp3940
g89
g90
ssg71
g3929
sg64
(lp3941
S':'
asbag57
(g78
g59
NtRp3942
(dp3943
g62
(dp3944
sg71
g3929
sg64
(lp3945
g57
(g58
g59
NtRp3946
(dp3947
g62
(dp3948
g70
I3
ssg71
g3942
sg64
(lp3949
g2376
asbasbasbag57
(g73
g59
NtRp3950
(dp3951
g62
(dp3952
sg71
g3313
sg64
(lp3953
g57
(g78
g59
NtRp3954
(dp3955
g62
(dp3956
g82
g83
ssg71
g3950
sg64
(lp3957
S'wsgi.version'
p3958
asbag57
(g78
g59
NtRp3959
(dp3960
g62
(dp3961
g89
g90
ssg71
g3950
sg64
(lp3962
S':'
asbag57
(g78
g59
NtRp3963
(dp3964
g62
(dp3965
sg71
g3950
sg64
(lp3966
g57
(g58
g59
NtRp3967
(dp3968
g62
(dp3969
g70
I3
ssg71
g3963
sg64
(lp3970
S'1'
asbasbasbasbasbasbasbasbasbasbasbasbasbsS'frames'
p3971
(lp3972
(dp3973
S'file'
p3974
S'/home/ian/web2py/gluon/restricted.py'
p3975
sS'dump'
p3976
(dp3977
S'environment'
p3978
S"{'A': <class 'gluon.html.A'>, 'Auth': <class 'gluon.tools.Auth'>, 'B': <class 'gluon.html.B'>, 'BEAUTIFY': <class 'gluon.html.BEAUTIFY'>, 'BODY': <class 'gluon.html.BODY'>, 'BR': <class 'gluon.html.BR'>, 'BUTTON': <class 'gluon.html.BUTTON'>, 'CAT': <class 'gluon.html.CAT'>, 'CENTER': <class 'gluon.html.CENTER'>, 'CLEANUP': <class 'gluon.validators.CLEANUP'>, ...}"
p3979
sS'ccode'
p3980
S'<code object <module> at 0x19e77b0, file "/home/...plications/blog/controllers/default.py", line 12>'
p3981
ssS'lnum'
p3982
I204
sS'lines'
p3983
(dp3984
I199
S'    try:'
p3985
sI200
S'        if type(code) == types.CodeType:'
p3986
sI201
S'            ccode = code'
p3987
sI202
S'        else:'
p3988
sI203
S'            ccode = compile2(code,layer)'
p3989
sI204
S'        exec ccode in environment'
p3990
sI205
S'    except HTTP:'
p3991
sI206
S'        raise'
p3992
sI207
S'    except RestrictedError:'
p3993
sI208
S'        # do not encapsulate (obfuscate) the original RestrictedError'
p3994
ssS'call'
p3995
S"(code='# -*- coding: utf-8 -*-\\n# this file is released ...=crud())\\n\\n\\nresponse._vars=response._caller(user)\\n', environment={'A': <class 'gluon.html.A'>, 'Auth': <class 'gluon.tools.Auth'>, 'B': <class 'gluon.html.B'>, 'BEAUTIFY': <class 'gluon.html.BEAUTIFY'>, 'BODY': <class 'gluon.html.BODY'>, 'BR': <class 'gluon.html.BR'>, 'BUTTON': <class 'gluon.html.BUTTON'>, 'CAT': <class 'gluon.html.CAT'>, 'CENTER': <class 'gluon.html.CENTER'>, 'CLEANUP': <class 'gluon.validators.CLEANUP'>, ...}, layer='/home/ian/web2py/applications/blog/controllers/default.py')"
p3996
sS'func'
p3997
S'restricted'
p3998
sa(dp3999
g3974
S'/home/ian/web2py/applications/blog/controllers/default.py'
p4000
sg3976
(dp4001
sg3982
I73
sg3983
(dp4002
I64
S'    http://..../[app]/default/data/search/[table]'
p4003
sI65
S'    but URLs must be signed, i.e. linked with'
p4004
sI66
S"      A('table',_href=URL('data/tables',user_signature=True))"
p4005
sI67
S'    or with the signed load operator'
p4006
sI68
S"      LOAD('default','data.load',args='tables',ajax=True,user_signature=True)"
p4007
sI69
S'    """'
p4008
sI70
S'    return dict(form=crud())'
p4009
sI71
S''
sI62
S'    http://..../[app]/default/data/delete/[table]/[id]'
p4010
sI63
S'    http://..../[app]/default/data/select/[table]'
p4011
ssg3995
S'()'
p4012
sg3997
S'<module>'
p4013
sa(dp4014
g3974
S'/home/ian/web2py/gluon/globals.py'
p4015
sg3976
(dp4016
S'self'
p4017
S'undefined'
p4018
sS'f'
S'<function user>'
p4019
ssg3982
I172
sg3983
(dp4020
I167
S'        self.meta = Storage()      # used by web2py_ajax.html'
p4021
sI168
S'        self.menu = []             # used by the default view layout'
p4022
sI169
S'        self.files = []            # used by web2py_ajax.html'
p4023
sI170
S'        self.generic_patterns = [] # patterns to allow generic views'
p4024
sI171
S'        self._vars = None'
p4025
sI172
S'        self._caller = lambda f: f()'
p4026
sI173
S'        self._view_environment = None'
p4027
sI174
S'        self._custom_commit = None'
p4028
sI175
S'        self._custom_rollback = None'
p4029
sI176
S''
ssg3995
S'(f=<function user>)'
p4030
sg3997
S'<lambda>'
p4031
sa(dp4032
g3974
S'/home/ian/web2py/applications/blog/controllers/default.py'
p4033
sg3976
(dp4034
S'global auth'
p4035
S'<gluon.tools.Auth object>'
p4036
sS'form'
p4037
g4018
sS'builtindict'
p4038
S"<type 'dict'>"
p4039
ssg3982
I34
sg3983
(dp4040
I32
S'    to decorate functions that need access control'
p4041
sI33
S'    """'
p4042
sI34
S'    return dict(form=auth())'
p4043
sI35
S''
sI36
S''
sI37
S'def download():'
p4044
sI38
S'    """'
p4045
sI29
S'    use @auth.requires_login()'
p4046
sI30
S"        @auth.requires_membership('group name')"
p4047
sI31
S"        @auth.requires_permission('read','table name',record_id)"
p4048
ssg3995
S'()'
p4049
sg3997
S'user'
p4050
sa(dp4051
g3974
S'/home/ian/web2py/gluon/tools.py'
p4052
sg3976
(dp4053
S'self'
p4054
S'<gluon.tools.Auth object>'
p4055
sS'args'
p4056
S"['register']"
p4057
sS'builtingetattr'
p4058
S'<built-in function getattr>'
p4059
ssg3982
I1141
sg3983
(dp4060
I1136
S"        if args[0] in ('login','logout','register','verify_email',"
p4061
sI1137
S"                       'retrieve_username','retrieve_password',"
p4062
sI1138
S"                       'reset_password','request_reset_password',"
p4063
sI1139
S"                       'change_password','profile','groups',"
p4064
sI1140
S"                       'impersonate','not_authorized'):"
p4065
sI1141
S'            return getattr(self,args[0])()'
p4066
sI1142
S"        elif args[0]=='cas' and not self.settings.cas_provider:"
p4067
sI1143
S"            if args(1) == self.settings.cas_actions['login']:"
p4068
sI1144
S'                return self.cas_login(version=2)'
p4069
sI1145
S"            elif args(1) == self.settings.cas_actions['validate']:"
p4070
ssg3995
S'(self=<gluon.tools.Auth object>)'
p4071
sg3997
S'__call__'
p4072
sa(dp4073
g3974
S'/home/ian/web2py/gluon/tools.py'
p4074
sg3976
(dp4075
S'global replace_id'
p4076
S'<function replace_id>'
p4077
sS'form'
p4078
S'<gluon.sqlhtml.SQLFORM object>'
p4079
sS'next'
p4080
S"'/blog/appadmin/select/db?delete_check=on&query=db.auth_user.id+%3D%3D+1&update_fields='"
p4081
ssg3982
I1938
sg3983
(dp4082
I1933
S'            self.log_event(log, form.vars)'
p4083
sI1934
S'            callback(onaccept,form)'
p4084
sI1935
S'            if not next:'
p4085
sI1936
S'                next = self.url(args = request.args)'
p4086
sI1937
S'            else:'
p4087
sI1938
S'                next = replace_id(next, form)'
p4088
sI1939
S'            redirect(next)'
p4089
sI1940
S'        return form'
p4090
sI1941
S''
sI1942
S'    def is_logged_in(self):'
p4091
ssg3995
S"(self=<gluon.tools.Auth object>, next='/blog/appadmin/select/db?delete_check=on&query=db.auth_user.id+%3D%3D+1&update_fields=', onvalidation=[], onaccept=[], log='User %(id)s Registered')"
p4092
sg3997
S'register'
p4093
sa(dp4094
g3974
S'/home/ian/web2py/gluon/tools.py'
p4095
sg3976
(dp4096
S'url'
p4097
S"'/blog/appadmin/select/db?delete_check=on&query=db.auth_user.id+%3D%3D+1&update_fields='"
p4098
sS'form.vars'
p4099
S"<Storage {'first_name': 'Ian', 'last_name': 'Sco...b0f618a62625c9', 'email': 'scottianw@gmail.com'}>"
p4100
sS'form'
p4101
S'<gluon.sqlhtml.SQLFORM object>'
p4102
ssg3982
I79
sg3983
(dp4103
I74
S"    if url and not url[0] == '/' and url[:4] != 'http':"
p4104
sI75
S'        # this is here for backward compatibility'
p4105
sI76
S"        return URL(url.replace('[id]', str(form.vars.id)))"
p4106
sI77
S'    elif url:'
p4107
sI78
S'        # this allows http://..../%(id)s/%(name)s/etc.'
p4108
sI79
S'        return url % form.vars'
p4109
sI80
S'    return url'
p4110
sI81
S''
sI82
S'class Mail(object):'
p4111
sI83
S'    """'
p4112
ssg3995
S"(url='/blog/appadmin/select/db?delete_check=on&query=db.auth_user.id+%3D%3D+1&update_fields=', form=<gluon.sqlhtml.SQLFORM object>)"
p4113
sg3997
S'replace_id'
p4114
sasS'pyver'
p4115
S'Python 2.7.2+: /usr/bin/python2.7'
p4116
sS'session'
p4117
g57
(g58
g59
NtRp4118
(dp4119
g62
(dp4120
sg64
(lp4121
g57
(g66
g59
NtRp4122
(dp4123
g62
(dp4124
g70
I5
ssg71
Nsg64
(lp4125
g57
(g73
g59
NtRp4126
(dp4127
g62
(dp4128
sg71
g4122
sg64
(lp4129
g57
(g78
g59
NtRp4130
(dp4131
g62
(dp4132
g82
g83
ssg71
g4126
sg64
(lp4133
S'auth'
p4134
asbag57
(g78
g59
NtRp4135
(dp4136
g62
(dp4137
g89
g90
ssg71
g4126
sg64
(lp4138
S':'
asbag57
(g78
g59
NtRp4139
(dp4140
g62
(dp4141
sg71
g4126
sg64
(lp4142
g57
(g58
g59
NtRp4143
(dp4144
g62
(dp4145
g70
I5
ssg71
g4139
sg64
(lp4146
g57
(g66
g59
NtRp4147
(dp4148
g62
(dp4149
g70
I4
ssg71
Nsg64
(lp4150
g57
(g73
g59
NtRp4151
(dp4152
g62
(dp4153
sg71
g4147
sg64
(lp4154
g57
(g78
g59
NtRp4155
(dp4156
g62
(dp4157
g82
g83
ssg71
g4151
sg64
(lp4158
S'expiration'
p4159
asbag57
(g78
g59
NtRp4160
(dp4161
g62
(dp4162
g89
g90
ssg71
g4151
sg64
(lp4163
S':'
asbag57
(g78
g59
NtRp4164
(dp4165
g62
(dp4166
sg71
g4151
sg64
(lp4167
g57
(g58
g59
NtRp4168
(dp4169
g62
(dp4170
g70
I4
ssg71
g4164
sg64
(lp4171
S'3600'
p4172
asbasbasbag57
(g73
g59
NtRp4173
(dp4174
g62
(dp4175
sg71
g4147
sg64
(lp4176
g57
(g78
g59
NtRp4177
(dp4178
g62
(dp4179
g82
g83
ssg71
g4173
sg64
(lp4180
S'hmac_key'
p4181
asbag57
(g78
g59
NtRp4182
(dp4183
g62
(dp4184
g89
g90
ssg71
g4173
sg64
(lp4185
S':'
asbag57
(g78
g59
NtRp4186
(dp4187
g62
(dp4188
sg71
g4173
sg64
(lp4189
g57
(g58
g59
NtRp4190
(dp4191
g62
(dp4192
g70
I4
ssg71
g4186
sg64
(lp4193
S'11ae0436-e7dc-42aa-9a14-c232c5651bf4'
p4194
asbasbasbag57
(g73
g59
NtRp4195
(dp4196
g62
(dp4197
sg71
g4147
sg64
(lp4198
g57
(g78
g59
NtRp4199
(dp4200
g62
(dp4201
g82
g83
ssg71
g4195
sg64
(lp4202
S'last_visit'
p4203
asbag57
(g78
g59
NtRp4204
(dp4205
g62
(dp4206
g89
g90
ssg71
g4195
sg64
(lp4207
S':'
asbag57
(g78
g59
NtRp4208
(dp4209
g62
(dp4210
sg71
g4195
sg64
(lp4211
g57
(g58
g59
NtRp4212
(dp4213
g62
(dp4214
g70
I4
ssg71
g4208
sg64
(lp4215
S'datetime.datetime(2012, 1, 31, 20, 30, 46, 588860)'
p4216
asbasbasbag57
(g73
g59
NtRp4217
(dp4218
g62
(dp4219
sg71
g4147
sg64
(lp4220
g57
(g78
g59
NtRp4221
(dp4222
g62
(dp4223
g82
g83
ssg71
g4217
sg64
(lp4224
g4050
asbag57
(g78
g59
NtRp4225
(dp4226
g62
(dp4227
g89
g90
ssg71
g4217
sg64
(lp4228
S':'
asbag57
(g78
g59
NtRp4229
(dp4230
g62
(dp4231
sg71
g4217
sg64
(lp4232
g57
(g58
g59
NtRp4233
(dp4234
g62
(dp4235
g70
I4
ssg71
g4229
sg64
(lp4236
g57
(g66
g59
NtRp4237
(dp4238
g62
(dp4239
g70
I3
ssg71
Nsg64
(lp4240
g57
(g73
g59
NtRp4241
(dp4242
g62
(dp4243
sg71
g4237
sg64
(lp4244
g57
(g78
g59
NtRp4245
(dp4246
g62
(dp4247
g82
g83
ssg71
g4241
sg64
(lp4248
S'email'
p4249
asbag57
(g78
g59
NtRp4250
(dp4251
g62
(dp4252
g89
g90
ssg71
g4241
sg64
(lp4253
S':'
asbag57
(g78
g59
NtRp4254
(dp4255
g62
(dp4256
sg71
g4241
sg64
(lp4257
g57
(g58
g59
NtRp4258
(dp4259
g62
(dp4260
g70
I3
ssg71
g4254
sg64
(lp4261
S'scottianw@gmail.com'
p4262
asbasbasbag57
(g73
g59
NtRp4263
(dp4264
g62
(dp4265
sg71
g4237
sg64
(lp4266
g57
(g78
g59
NtRp4267
(dp4268
g62
(dp4269
g82
g83
ssg71
g4263
sg64
(lp4270
S'first_name'
p4271
asbag57
(g78
g59
NtRp4272
(dp4273
g62
(dp4274
g89
g90
ssg71
g4263
sg64
(lp4275
S':'
asbag57
(g78
g59
NtRp4276
(dp4277
g62
(dp4278
sg71
g4263
sg64
(lp4279
g57
(g58
g59
NtRp4280
(dp4281
g62
(dp4282
g70
I3
ssg71
g4276
sg64
(lp4283
S'Ian'
p4284
asbasbasbag57
(g73
g59
NtRp4285
(dp4286
g62
(dp4287
sg71
g4237
sg64
(lp4288
g57
(g78
g59
NtRp4289
(dp4290
g62
(dp4291
g82
g83
ssg71
g4285
sg64
(lp4292
S'id'
p4293
asbag57
(g78
g59
NtRp4294
(dp4295
g62
(dp4296
g89
g90
ssg71
g4285
sg64
(lp4297
S':'
asbag57
(g78
g59
NtRp4298
(dp4299
g62
(dp4300
sg71
g4285
sg64
(lp4301
g57
(g58
g59
NtRp4302
(dp4303
g62
(dp4304
g70
I3
ssg71
g4298
sg64
(lp4305
S'2'
asbasbasbag57
(g73
g59
NtRp4306
(dp4307
g62
(dp4308
sg71
g4237
sg64
(lp4309
g57
(g78
g59
NtRp4310
(dp4311
g62
(dp4312
g82
g83
ssg71
g4306
sg64
(lp4313
S'last_name'
p4314
asbag57
(g78
g59
NtRp4315
(dp4316
g62
(dp4317
g89
g90
ssg71
g4306
sg64
(lp4318
S':'
asbag57
(g78
g59
NtRp4319
(dp4320
g62
(dp4321
sg71
g4306
sg64
(lp4322
g57
(g58
g59
NtRp4323
(dp4324
g62
(dp4325
g70
I3
ssg71
g4319
sg64
(lp4326
S'Scott'
p4327
asbasbasbag57
(g73
g59
NtRp4328
(dp4329
g62
(dp4330
sg71
g4237
sg64
(lp4331
g57
(g78
g59
NtRp4332
(dp4333
g62
(dp4334
g82
g83
ssg71
g4328
sg64
(lp4335
S'password'
p4336
asbag57
(g78
g59
NtRp4337
(dp4338
g62
(dp4339
g89
g90
ssg71
g4328
sg64
(lp4340
S':'
asbag57
(g78
g59
NtRp4341
(dp4342
g62
(dp4343
sg71
g4328
sg64
(lp4344
g57
(g58
g59
NtRp4345
(dp4346
g62
(dp4347
g70
I3
ssg71
g4341
sg64
(lp4348
S'7fd0efb88c70617f3fb0f618a62625c9'
p4349
asbasbasbag57
(g73
g59
NtRp4350
(dp4351
g62
(dp4352
sg71
g4237
sg64
(lp4353
g57
(g78
g59
NtRp4354
(dp4355
g62
(dp4356
g82
g83
ssg71
g4350
sg64
(lp4357
S'registration_id'
p4358
asbag57
(g78
g59
NtRp4359
(dp4360
g62
(dp4361
g89
g90
ssg71
g4350
sg64
(lp4362
S':'
asbag57
(g78
g59
NtRp4363
(dp4364
g62
(dp4365
sg71
g4350
sg64
(lp4366
g57
(g58
g59
NtRp4367
(dp4368
g62
(dp4369
g70
I3
ssg71
g4363
sg64
(lp4370
S''
asbasbasbag57
(g73
g59
NtRp4371
(dp4372
g62
(dp4373
sg71
g4237
sg64
(lp4374
g57
(g78
g59
NtRp4375
(dp4376
g62
(dp4377
g82
g83
ssg71
g4371
sg64
(lp4378
S'registration_key'
p4379
asbag57
(g78
g59
NtRp4380
(dp4381
g62
(dp4382
g89
g90
ssg71
g4371
sg64
(lp4383
S':'
asbag57
(g78
g59
NtRp4384
(dp4385
g62
(dp4386
sg71
g4371
sg64
(lp4387
g57
(g58
g59
NtRp4388
(dp4389
g62
(dp4390
g70
I3
ssg71
g4384
sg64
(lp4391
S''
asbasbasbag57
(g73
g59
NtRp4392
(dp4393
g62
(dp4394
sg71
g4237
sg64
(lp4395
g57
(g78
g59
NtRp4396
(dp4397
g62
(dp4398
g82
g83
ssg71
g4392
sg64
(lp4399
S'reset_password_key'
p4400
asbag57
(g78
g59
NtRp4401
(dp4402
g62
(dp4403
g89
g90
ssg71
g4392
sg64
(lp4404
S':'
asbag57
(g78
g59
NtRp4405
(dp4406
g62
(dp4407
sg71
g4392
sg64
(lp4408
g57
(g58
g59
NtRp4409
(dp4410
g62
(dp4411
g70
I3
ssg71
g4405
sg64
(lp4412
S''
asbasbasbasbasbasbasbasbasbasbasbag57
(g73
g59
NtRp4413
(dp4414
g62
(dp4415
sg71
g4122
sg64
(lp4416
g57
(g78
g59
NtRp4417
(dp4418
g62
(dp4419
g82
g83
ssg71
g4413
sg64
(lp4420
S'flash'
p4421
asbag57
(g78
g59
NtRp4422
(dp4423
g62
(dp4424
g89
g90
ssg71
g4413
sg64
(lp4425
S':'
asbag57
(g78
g59
NtRp4426
(dp4427
g62
(dp4428
sg71
g4413
sg64
(lp4429
g57
(g58
g59
NtRp4430
(dp4431
g62
(dp4432
g70
I5
ssg71
g4426
sg64
(lp4433
S'Logged in'
p4434
asbasbasbag57
(g73
g59
NtRp4435
(dp4436
g62
(dp4437
sg71
g4122
sg64
(lp4438
g57
(g78
g59
NtRp4439
(dp4440
g62
(dp4441
g82
g83
ssg71
g4435
sg64
(lp4442
S'last_query'
p4443
asbag57
(g78
g59
NtRp4444
(dp4445
g62
(dp4446
g89
g90
ssg71
g4435
sg64
(lp4447
S':'
asbag57
(g78
g59
NtRp4448
(dp4449
g62
(dp4450
sg71
g4435
sg64
(lp4451
g57
(g58
g59
NtRp4452
(dp4453
g62
(dp4454
g70
I5
ssg71
g4448
sg64
(lp4455
S'db.auth_user.id>0'
p4456
asbasbasbasbasbsS'etype'
p4457
S"<type 'exceptions.ValueError'>"
p4458
sS'date'
p4459
S'Tue Jan 31 20:30:46 2012'
p4460
sS'response'
p4461
g57
(g58
g59
NtRp4462
(dp4463
g62
(dp4464
sg64
(lp4465
g57
(g66
g59
NtRp4466
(dp4467
g62
(dp4468
g70
I5
ssg71
Nsg64
(lp4469
g57
(g73
g59
NtRp4470
(dp4471
g62
(dp4472
sg71
g4466
sg64
(lp4473
g57
(g78
g59
NtRp4474
(dp4475
g62
(dp4476
g82
g83
ssg71
g4470
sg64
(lp4477
g168
asbag57
(g78
g59
NtRp4478
(dp4479
g62
(dp4480
g89
g90
ssg71
g4470
sg64
(lp4481
S':'
asbag57
(g78
g59
NtRp4482
(dp4483
g62
(dp4484
sg71
g4470
sg64
(lp4485
g57
(g58
g59
NtRp4486
(dp4487
g62
(dp4488
g70
I5
ssg71
g4482
sg64
(lp4489
S'<cStringIO.StringO object at 0x1eb8618>'
p4490
asbasbasbag57
(g73
g59
NtRp4491
(dp4492
g62
(dp4493
sg71
g4466
sg64
(lp4494
g57
(g78
g59
NtRp4495
(dp4496
g62
(dp4497
g82
g83
ssg71
g4491
sg64
(lp4498
g234
asbag57
(g78
g59
NtRp4499
(dp4500
g62
(dp4501
g89
g90
ssg71
g4491
sg64
(lp4502
S':'
asbag57
(g78
g59
NtRp4503
(dp4504
g62
(dp4505
sg71
g4491
sg64
(lp4506
g57
(g58
g59
NtRp4507
(dp4508
g62
(dp4509
g70
I5
ssg71
g4503
sg64
(lp4510
g57
(g66
g59
NtRp4511
(dp4512
g62
(dp4513
g70
I4
ssg71
Nsg64
(lp4514
g57
(g73
g59
NtRp4515
(dp4516
g62
(dp4517
sg71
g4511
sg64
(lp4518
g57
(g78
g59
NtRp4519
(dp4520
g62
(dp4521
g82
g83
ssg71
g4515
sg64
(lp4522
S'session_id_blog'
p4523
asbag57
(g78
g59
NtRp4524
(dp4525
g62
(dp4526
g89
g90
ssg71
g4515
sg64
(lp4527
S':'
asbag57
(g78
g59
NtRp4528
(dp4529
g62
(dp4530
sg71
g4515
sg64
(lp4531
g57
(g58
g59
NtRp4532
(dp4533
g62
(dp4534
g70
I4
ssg71
g4528
sg64
(lp4535
g57
(g66
g59
NtRp4536
(dp4537
g62
(dp4538
g70
I3
ssg71
Nsg64
(lp4539
g57
(g73
g59
NtRp4540
(dp4541
g62
(dp4542
sg71
g4536
sg64
(lp4543
g57
(g78
g59
NtRp4544
(dp4545
g62
(dp4546
g82
g83
ssg71
g4540
sg64
(lp4547
g284
asbag57
(g78
g59
NtRp4548
(dp4549
g62
(dp4550
g89
g90
ssg71
g4540
sg64
(lp4551
S':'
asbag57
(g78
g59
NtRp4552
(dp4553
g62
(dp4554
sg71
g4540
sg64
(lp4555
g57
(g58
g59
NtRp4556
(dp4557
g62
(dp4558
g70
I3
ssg71
g4552
sg64
(lp4559
S''
asbasbasbag57
(g73
g59
NtRp4560
(dp4561
g62
(dp4562
sg71
g4536
sg64
(lp4563
g57
(g78
g59
NtRp4564
(dp4565
g62
(dp4566
g82
g83
ssg71
g4560
sg64
(lp4567
g305
asbag57
(g78
g59
NtRp4568
(dp4569
g62
(dp4570
g89
g90
ssg71
g4560
sg64
(lp4571
S':'
asbag57
(g78
g59
NtRp4572
(dp4573
g62
(dp4574
sg71
g4560
sg64
(lp4575
g57
(g58
g59
NtRp4576
(dp4577
g62
(dp4578
g70
I3
ssg71
g4572
sg64
(lp4579
S''
asbasbasbag57
(g73
g59
NtRp4580
(dp4581
g62
(dp4582
sg71
g4536
sg64
(lp4583
g57
(g78
g59
NtRp4584
(dp4585
g62
(dp4586
g82
g83
ssg71
g4580
sg64
(lp4587
g326
asbag57
(g78
g59
NtRp4588
(dp4589
g62
(dp4590
g89
g90
ssg71
g4580
sg64
(lp4591
S':'
asbag57
(g78
g59
NtRp4592
(dp4593
g62
(dp4594
sg71
g4580
sg64
(lp4595
g57
(g58
g59
NtRp4596
(dp4597
g62
(dp4598
g70
I3
ssg71
g4592
sg64
(lp4599
S''
asbasbasbag57
(g73
g59
NtRp4600
(dp4601
g62
(dp4602
sg71
g4536
sg64
(lp4603
g57
(g78
g59
NtRp4604
(dp4605
g62
(dp4606
g82
g83
ssg71
g4600
sg64
(lp4607
g347
asbag57
(g78
g59
NtRp4608
(dp4609
g62
(dp4610
g89
g90
ssg71
g4600
sg64
(lp4611
S':'
asbag57
(g78
g59
NtRp4612
(dp4613
g62
(dp4614
sg71
g4600
sg64
(lp4615
g57
(g58
g59
NtRp4616
(dp4617
g62
(dp4618
g70
I3
ssg71
g4612
sg64
(lp4619
S''
asbasbasbag57
(g73
g59
NtRp4620
(dp4621
g62
(dp4622
sg71
g4536
sg64
(lp4623
g57
(g78
g59
NtRp4624
(dp4625
g62
(dp4626
g82
g83
ssg71
g4620
sg64
(lp4627
g368
asbag57
(g78
g59
NtRp4628
(dp4629
g62
(dp4630
g89
g90
ssg71
g4620
sg64
(lp4631
S':'
asbag57
(g78
g59
NtRp4632
(dp4633
g62
(dp4634
sg71
g4620
sg64
(lp4635
g57
(g58
g59
NtRp4636
(dp4637
g62
(dp4638
g70
I3
ssg71
g4632
sg64
(lp4639
S''
asbasbasbag57
(g73
g59
NtRp4640
(dp4641
g62
(dp4642
sg71
g4536
sg64
(lp4643
g57
(g78
g59
NtRp4644
(dp4645
g62
(dp4646
g82
g83
ssg71
g4640
sg64
(lp4647
g389
asbag57
(g78
g59
NtRp4648
(dp4649
g62
(dp4650
g89
g90
ssg71
g4640
sg64
(lp4651
S':'
asbag57
(g78
g59
NtRp4652
(dp4653
g62
(dp4654
sg71
g4640
sg64
(lp4655
g57
(g58
g59
NtRp4656
(dp4657
g62
(dp4658
g70
I3
ssg71
g4652
sg64
(lp4659
S'/'
asbasbasbag57
(g73
g59
NtRp4660
(dp4661
g62
(dp4662
sg71
g4536
sg64
(lp4663
g57
(g78
g59
NtRp4664
(dp4665
g62
(dp4666
g82
g83
ssg71
g4660
sg64
(lp4667
g410
asbag57
(g78
g59
NtRp4668
(dp4669
g62
(dp4670
g89
g90
ssg71
g4660
sg64
(lp4671
S':'
asbag57
(g78
g59
NtRp4672
(dp4673
g62
(dp4674
sg71
g4660
sg64
(lp4675
g57
(g58
g59
NtRp4676
(dp4677
g62
(dp4678
g70
I3
ssg71
g4672
sg64
(lp4679
S''
asbasbasbag57
(g73
g59
NtRp4680
(dp4681
g62
(dp4682
sg71
g4536
sg64
(lp4683
g57
(g78
g59
NtRp4684
(dp4685
g62
(dp4686
g82
g83
ssg71
g4680
sg64
(lp4687
g431
asbag57
(g78
g59
NtRp4688
(dp4689
g62
(dp4690
g89
g90
ssg71
g4680
sg64
(lp4691
S':'
asbag57
(g78
g59
NtRp4692
(dp4693
g62
(dp4694
sg71
g4680
sg64
(lp4695
g57
(g58
g59
NtRp4696
(dp4697
g62
(dp4698
g70
I3
ssg71
g4692
sg64
(lp4699
S''
asbasbasbasbasbasbasbasbasbasbasbag57
(g73
g59
NtRp4700
(dp4701
g62
(dp4702
sg71
g4466
sg64
(lp4703
g57
(g78
g59
NtRp4704
(dp4705
g62
(dp4706
g82
g83
ssg71
g4700
sg64
(lp4707
S'files'
p4708
asbag57
(g78
g59
NtRp4709
(dp4710
g62
(dp4711
g89
g90
ssg71
g4700
sg64
(lp4712
S':'
asbag57
(g78
g59
NtRp4713
(dp4714
g62
(dp4715
sg71
g4700
sg64
(lp4716
g57
(g58
g59
NtRp4717
(dp4718
g62
(dp4719
g70
I5
ssg71
g4713
sg64
(lp4720
g57
(g66
g59
NtRp4721
(dp4722
g62
(dp4723
g70
I4
ssg71
Nsg64
(lp4724
sbasbasbasbag57
(g73
g59
NtRp4725
(dp4726
g62
(dp4727
sg71
g4466
sg64
(lp4728
g57
(g78
g59
NtRp4729
(dp4730
g62
(dp4731
g82
g83
ssg71
g4725
sg64
(lp4732
g4421
asbag57
(g78
g59
NtRp4733
(dp4734
g62
(dp4735
g89
g90
ssg71
g4725
sg64
(lp4736
S':'
asbag57
(g78
g59
NtRp4737
(dp4738
g62
(dp4739
sg71
g4725
sg64
(lp4740
g57
(g58
g59
NtRp4741
(dp4742
g62
(dp4743
g70
I5
ssg71
g4737
sg64
(lp4744
S''
asbasbasbag57
(g73
g59
NtRp4745
(dp4746
g62
(dp4747
sg71
g4466
sg64
(lp4748
g57
(g78
g59
NtRp4749
(dp4750
g62
(dp4751
g82
g83
ssg71
g4745
sg64
(lp4752
S'generic_patterns'
p4753
asbag57
(g78
g59
NtRp4754
(dp4755
g62
(dp4756
g89
g90
ssg71
g4745
sg64
(lp4757
S':'
asbag57
(g78
g59
NtRp4758
(dp4759
g62
(dp4760
sg71
g4745
sg64
(lp4761
g57
(g58
g59
NtRp4762
(dp4763
g62
(dp4764
g70
I5
ssg71
g4758
sg64
(lp4765
g57
(g66
g59
NtRp4766
(dp4767
g62
(dp4768
g70
I4
ssg71
Nsg64
(lp4769
g57
(g73
g59
NtRp4770
(dp4771
g62
(dp4772
sg71
g4766
sg64
(lp4773
g57
(g78
g59
NtRp4774
(dp4775
g62
(dp4776
sg71
g4770
sg64
(lp4777
g57
(g58
g59
NtRp4778
(dp4779
g62
(dp4780
g70
I4
ssg71
g4774
sg64
(lp4781
S'*'
asbasbasbasbasbasbasbag57
(g73
g59
NtRp4782
(dp4783
g62
(dp4784
sg71
g4466
sg64
(lp4785
g57
(g78
g59
NtRp4786
(dp4787
g62
(dp4788
g82
g83
ssg71
g4782
sg64
(lp4789
S'headers'
p4790
asbag57
(g78
g59
NtRp4791
(dp4792
g62
(dp4793
g89
g90
ssg71
g4782
sg64
(lp4794
S':'
asbag57
(g78
g59
NtRp4795
(dp4796
g62
(dp4797
sg71
g4782
sg64
(lp4798
g57
(g58
g59
NtRp4799
(dp4800
g62
(dp4801
g70
I5
ssg71
g4795
sg64
(lp4802
g57
(g66
g59
NtRp4803
(dp4804
g62
(dp4805
g70
I4
ssg71
Nsg64
(lp4806
g57
(g73
g59
NtRp4807
(dp4808
g62
(dp4809
sg71
g4803
sg64
(lp4810
g57
(g78
g59
NtRp4811
(dp4812
g62
(dp4813
g82
g83
ssg71
g4807
sg64
(lp4814
S'Cache-Control'
p4815
asbag57
(g78
g59
NtRp4816
(dp4817
g62
(dp4818
g89
g90
ssg71
g4807
sg64
(lp4819
S':'
asbag57
(g78
g59
NtRp4820
(dp4821
g62
(dp4822
sg71
g4807
sg64
(lp4823
g57
(g58
g59
NtRp4824
(dp4825
g62
(dp4826
g70
I4
ssg71
g4820
sg64
(lp4827
S'no-store, no-cache, must-revalidate, post-check=0, pre-check=0'
p4828
asbasbasbag57
(g73
g59
NtRp4829
(dp4830
g62
(dp4831
sg71
g4803
sg64
(lp4832
g57
(g78
g59
NtRp4833
(dp4834
g62
(dp4835
g82
g83
ssg71
g4829
sg64
(lp4836
S'Content-Type'
p4837
asbag57
(g78
g59
NtRp4838
(dp4839
g62
(dp4840
g89
g90
ssg71
g4829
sg64
(lp4841
S':'
asbag57
(g78
g59
NtRp4842
(dp4843
g62
(dp4844
sg71
g4829
sg64
(lp4845
g57
(g58
g59
NtRp4846
(dp4847
g62
(dp4848
g70
I4
ssg71
g4842
sg64
(lp4849
S'text/html; charset=utf-8'
p4850
asbasbasbag57
(g73
g59
NtRp4851
(dp4852
g62
(dp4853
sg71
g4803
sg64
(lp4854
g57
(g78
g59
NtRp4855
(dp4856
g62
(dp4857
g82
g83
ssg71
g4851
sg64
(lp4858
S'Expires'
p4859
asbag57
(g78
g59
NtRp4860
(dp4861
g62
(dp4862
g89
g90
ssg71
g4851
sg64
(lp4863
S':'
asbag57
(g78
g59
NtRp4864
(dp4865
g62
(dp4866
sg71
g4851
sg64
(lp4867
g57
(g58
g59
NtRp4868
(dp4869
g62
(dp4870
g70
I4
ssg71
g4864
sg64
(lp4871
S'Wed, 01 Feb 2012 01:30:46 GMT'
p4872
asbasbasbag57
(g73
g59
NtRp4873
(dp4874
g62
(dp4875
sg71
g4803
sg64
(lp4876
g57
(g78
g59
NtRp4877
(dp4878
g62
(dp4879
g82
g83
ssg71
g4873
sg64
(lp4880
S'Pragma'
p4881
asbag57
(g78
g59
NtRp4882
(dp4883
g62
(dp4884
g89
g90
ssg71
g4873
sg64
(lp4885
S':'
asbag57
(g78
g59
NtRp4886
(dp4887
g62
(dp4888
sg71
g4873
sg64
(lp4889
g57
(g58
g59
NtRp4890
(dp4891
g62
(dp4892
g70
I4
ssg71
g4886
sg64
(lp4893
S'no-cache'
p4894
asbasbasbag57
(g73
g59
NtRp4895
(dp4896
g62
(dp4897
sg71
g4803
sg64
(lp4898
g57
(g78
g59
NtRp4899
(dp4900
g62
(dp4901
g82
g83
ssg71
g4895
sg64
(lp4902
S'X-Powered-By'
p4903
asbag57
(g78
g59
NtRp4904
(dp4905
g62
(dp4906
g89
g90
ssg71
g4895
sg64
(lp4907
S':'
asbag57
(g78
g59
NtRp4908
(dp4909
g62
(dp4910
sg71
g4895
sg64
(lp4911
g57
(g58
g59
NtRp4912
(dp4913
g62
(dp4914
g70
I4
ssg71
g4908
sg64
(lp4915
S'web2py'
p4916
asbasbasbasbasbasbasbag57
(g73
g59
NtRp4917
(dp4918
g62
(dp4919
sg71
g4466
sg64
(lp4920
g57
(g78
g59
NtRp4921
(dp4922
g62
(dp4923
g82
g83
ssg71
g4917
sg64
(lp4924
S'menu'
p4925
asbag57
(g78
g59
NtRp4926
(dp4927
g62
(dp4928
g89
g90
ssg71
g4917
sg64
(lp4929
S':'
asbag57
(g78
g59
NtRp4930
(dp4931
g62
(dp4932
sg71
g4917
sg64
(lp4933
g57
(g58
g59
NtRp4934
(dp4935
g62
(dp4936
g70
I5
ssg71
g4930
sg64
(lp4937
g57
(g66
g59
NtRp4938
(dp4939
g62
(dp4940
g70
I4
ssg71
Nsg64
(lp4941
g57
(g73
g59
NtRp4942
(dp4943
g62
(dp4944
sg71
g4938
sg64
(lp4945
g57
(g78
g59
NtRp4946
(dp4947
g62
(dp4948
sg71
g4942
sg64
(lp4949
g57
(g58
g59
NtRp4950
(dp4951
g62
(dp4952
g70
I4
ssg71
g4946
sg64
(lp4953
g57
(g66
g59
NtRp4954
(dp4955
g62
(dp4956
g70
I3
ssg71
Nsg64
(lp4957
g57
(g73
g59
NtRp4958
(dp4959
g62
(dp4960
sg71
g4954
sg64
(lp4961
g57
(g78
g59
NtRp4962
(dp4963
g62
(dp4964
sg71
g4958
sg64
(lp4965
g57
(g58
g59
NtRp4966
(dp4967
g62
(dp4968
g70
I3
ssg71
g4962
sg64
(lp4969
cgluon.languages
lazyT_unpickle
p4970
(S't\x04\x00\x00\x00Home'
tRp4971
asbasbasbag57
(g73
g59
NtRp4972
(dp4973
g62
(dp4974
sg71
g4954
sg64
(lp4975
g57
(g78
g59
NtRp4976
(dp4977
g62
(dp4978
sg71
g4972
sg64
(lp4979
g57
(g58
g59
NtRp4980
(dp4981
g62
(dp4982
g70
I3
ssg71
g4976
sg64
(lp4983
g100
asbasbasbag57
(g73
g59
NtRp4984
(dp4985
g62
(dp4986
sg71
g4954
sg64
(lp4987
g57
(g78
g59
NtRp4988
(dp4989
g62
(dp4990
sg71
g4984
sg64
(lp4991
g57
(g58
g59
NtRp4992
(dp4993
g62
(dp4994
g70
I3
ssg71
g4988
sg64
(lp4995
S'/blog/default/index'
p4996
asbasbasbag57
(g73
g59
NtRp4997
(dp4998
g62
(dp4999
sg71
g4954
sg64
(lp5000
g57
(g78
g59
NtRp5001
(dp5002
g62
(dp5003
sg71
g4997
sg64
(lp5004
g57
(g58
g59
NtRp5005
(dp5006
g62
(dp5007
g70
I3
ssg71
g5001
sg64
(lp5008
g57
(g66
g59
NtRp5009
(dp5010
g62
(dp5011
g70
I2
ssg71
Nsg64
(lp5012
sbasbasbasbasbasbasbasbag57
(g73
g59
NtRp5013
(dp5014
g62
(dp5015
sg71
g4938
sg64
(lp5016
g57
(g78
g59
NtRp5017
(dp5018
g62
(dp5019
sg71
g5013
sg64
(lp5020
g57
(g58
g59
NtRp5021
(dp5022
g62
(dp5023
g70
I4
ssg71
g5017
sg64
(lp5024
g57
(g66
g59
NtRp5025
(dp5026
g62
(dp5027
g70
I3
ssg71
Nsg64
(lp5028
g57
(g73
g59
NtRp5029
(dp5030
g62
(dp5031
sg71
g5025
sg64
(lp5032
g57
(g78
g59
NtRp5033
(dp5034
g62
(dp5035
sg71
g5029
sg64
(lp5036
g57
(g58
g59
NtRp5037
(dp5038
g62
(dp5039
g70
I3
ssg71
g5033
sg64
(lp5040
g57
(cgluon.html
SPAN
p5041
g59
NtRp5042
(dp5043
g62
(dp5044
g82
S'color:yellow'
p5045
ssg71
Nsg64
(lp5046
g4916
asbasbasbasbag57
(g73
g59
NtRp5047
(dp5048
g62
(dp5049
sg71
g5025
sg64
(lp5050
g57
(g78
g59
NtRp5051
(dp5052
g62
(dp5053
sg71
g5047
sg64
(lp5054
g57
(g58
g59
NtRp5055
(dp5056
g62
(dp5057
g70
I3
ssg71
g5051
sg64
(lp5058
g100
asbasbasbag57
(g73
g59
NtRp5059
(dp5060
g62
(dp5061
sg71
g5025
sg64
(lp5062
g57
(g78
g59
NtRp5063
(dp5064
g62
(dp5065
sg71
g5059
sg64
(lp5066
g57
(g58
g59
NtRp5067
(dp5068
g62
(dp5069
g70
I3
ssg71
g5063
sg64
(lp5070
S'None'
p5071
asbasbasbag57
(g73
g59
NtRp5072
(dp5073
g62
(dp5074
sg71
g5025
sg64
(lp5075
g57
(g78
g59
NtRp5076
(dp5077
g62
(dp5078
sg71
g5072
sg64
(lp5079
g57
(g58
g59
NtRp5080
(dp5081
g62
(dp5082
g70
I3
ssg71
g5076
sg64
(lp5083
g57
(g66
g59
NtRp5084
(dp5085
g62
(dp5086
g70
I2
ssg71
Nsg64
(lp5087
g57
(g73
g59
NtRp5088
(dp5089
g62
(dp5090
sg71
g5084
sg64
(lp5091
g57
(g78
g59
NtRp5092
(dp5093
g62
(dp5094
sg71
g5088
sg64
(lp5095
g57
(g58
g59
NtRp5096
(dp5097
g62
(dp5098
g70
I2
ssg71
g5092
sg64
(lp5099
g57
(g66
g59
NtRp5100
(dp5101
g62
(dp5102
g70
I1
ssg71
Nsg64
(lp5103
g57
(g73
g59
NtRp5104
(dp5105
g62
(dp5106
sg71
g5100
sg64
(lp5107
g57
(g78
g59
NtRp5108
(dp5109
g62
(dp5110
sg71
g5104
sg64
(lp5111
g57
(g58
g59
NtRp5112
(dp5113
g62
(dp5114
g70
I1
ssg71
g5108
sg64
(lp5115
g4970
(S's\x08\x00\x00\x00My Sites'
tRp5116
asbasbasbag57
(g73
g59
NtRp5117
(dp5118
g62
(dp5119
sg71
g5100
sg64
(lp5120
g57
(g78
g59
NtRp5121
(dp5122
g62
(dp5123
sg71
g5117
sg64
(lp5124
g57
(g58
g59
NtRp5125
(dp5126
g62
(dp5127
g70
I1
ssg71
g5121
sg64
(lp5128
I00
asbasbasbag57
(g73
g59
NtRp5129
(dp5130
g62
(dp5131
sg71
g5100
sg64
(lp5132
g57
(g78
g59
NtRp5133
(dp5134
g62
(dp5135
sg71
g5129
sg64
(lp5136
g57
(g58
g59
NtRp5137
(dp5138
g62
(dp5139
g70
I1
ssg71
g5133
sg64
(lp5140
S'/admin/default/site'
p5141
asbasbasbasbasbasbasbag57
(g73
g59
NtRp5142
(dp5143
g62
(dp5144
sg71
g5084
sg64
(lp5145
g57
(g78
g59
NtRp5146
(dp5147
g62
(dp5148
sg71
g5142
sg64
(lp5149
g57
(g58
g59
NtRp5150
(dp5151
g62
(dp5152
g70
I2
ssg71
g5146
sg64
(lp5153
g57
(g66
g59
NtRp5154
(dp5155
g62
(dp5156
g70
I1
ssg71
Nsg64
(lp5157
g57
(g73
g59
NtRp5158
(dp5159
g62
(dp5160
sg71
g5154
sg64
(lp5161
g57
(g78
g59
NtRp5162
(dp5163
g62
(dp5164
sg71
g5158
sg64
(lp5165
g57
(g58
g59
NtRp5166
(dp5167
g62
(dp5168
g70
I1
ssg71
g5162
sg64
(lp5169
g4970
(S's\x08\x00\x00\x00This App'
tRp5170
asbasbasbag57
(g73
g59
NtRp5171
(dp5172
g62
(dp5173
sg71
g5154
sg64
(lp5174
g57
(g78
g59
NtRp5175
(dp5176
g62
(dp5177
sg71
g5171
sg64
(lp5178
g57
(g58
g59
NtRp5179
(dp5180
g62
(dp5181
g70
I1
ssg71
g5175
sg64
(lp5182
I00
asbasbasbag57
(g73
g59
NtRp5183
(dp5184
g62
(dp5185
sg71
g5154
sg64
(lp5186
g57
(g78
g59
NtRp5187
(dp5188
g62
(dp5189
sg71
g5183
sg64
(lp5190
g57
(g58
g59
NtRp5191
(dp5192
g62
(dp5193
g70
I1
ssg71
g5187
sg64
(lp5194
S'/admin/default/design/blog'
p5195
asbasbasbag57
(g73
g59
NtRp5196
(dp5197
g62
(dp5198
sg71
g5154
sg64
(lp5199
g57
(g78
g59
NtRp5200
(dp5201
g62
(dp5202
sg71
g5196
sg64
(lp5203
g57
(g58
g59
NtRp5204
(dp5205
g62
(dp5206
g70
I1
ssg71
g5200
sg64
(lp5207
(lp5208
(g4970
(S't\n\x00\x00\x00Controller'
tRp5209
I00
S'/admin/default/edit/blog/controllers/default.py'
tp5210
a(g4970
(S't\x04\x00\x00\x00View'
tRp5211
I00
S'/admin/default/edit/blog/views/default/user.html'
tp5212
a(g4970
(S't\x06\x00\x00\x00Layout'
tRp5213
I00
S'/admin/default/edit/blog/views/layout.html'
tp5214
a(g4970
(S't\n\x00\x00\x00Stylesheet'
tRp5215
I00
S'/admin/default/edit/blog/static/css/web2py.css'
tp5216
a(g4970
(S's\x08\x00\x00\x00DB Model'
tRp5217
I00
S'/admin/default/edit/blog/models/db.py'
tp5218
a(g4970
(S's\n\x00\x00\x00Menu Model'
tRp5219
I00
S'/admin/default/edit/blog/models/menu.py'
tp5220
a(g4970
(S't\x08\x00\x00\x00Database'
tRp5221
I00
S'/blog/appadmin/index'
tp5222
a(g4970
(S't\x06\x00\x00\x00Errors'
tRp5223
I00
S'/admin/default/errors/blog'
tp5224
a(g4970
(S't\x05\x00\x00\x00About'
tRp5225
I00
S'/admin/default/about/blog'
tp5226
aasbasbasbasbasbasbasbag57
(g73
g59
NtRp5227
(dp5228
g62
(dp5229
sg71
g5084
sg64
(lp5230
g57
(g78
g59
NtRp5231
(dp5232
g62
(dp5233
sg71
g5227
sg64
(lp5234
g57
(g58
g59
NtRp5235
(dp5236
g62
(dp5237
g70
I2
ssg71
g5231
sg64
(lp5238
g57
(g66
g59
NtRp5239
(dp5240
g62
(dp5241
g70
I1
ssg71
Nsg64
(lp5242
g57
(g73
g59
NtRp5243
(dp5244
g62
(dp5245
sg71
g5239
sg64
(lp5246
g57
(g78
g59
NtRp5247
(dp5248
g62
(dp5249
sg71
g5243
sg64
(lp5250
g57
(g58
g59
NtRp5251
(dp5252
g62
(dp5253
g70
I1
ssg71
g5247
sg64
(lp5254
S'web2py.com'
p5255
asbasbasbag57
(g73
g59
NtRp5256
(dp5257
g62
(dp5258
sg71
g5239
sg64
(lp5259
g57
(g78
g59
NtRp5260
(dp5261
g62
(dp5262
sg71
g5256
sg64
(lp5263
g57
(g58
g59
NtRp5264
(dp5265
g62
(dp5266
g70
I1
ssg71
g5260
sg64
(lp5267
I00
asbasbasbag57
(g73
g59
NtRp5268
(dp5269
g62
(dp5270
sg71
g5239
sg64
(lp5271
g57
(g78
g59
NtRp5272
(dp5273
g62
(dp5274
sg71
g5268
sg64
(lp5275
g57
(g58
g59
NtRp5276
(dp5277
g62
(dp5278
g70
I1
ssg71
g5272
sg64
(lp5279
S'http://www.web2py.com'
p5280
asbasbasbag57
(g73
g59
NtRp5281
(dp5282
g62
(dp5283
sg71
g5239
sg64
(lp5284
g57
(g78
g59
NtRp5285
(dp5286
g62
(dp5287
sg71
g5281
sg64
(lp5288
g57
(g58
g59
NtRp5289
(dp5290
g62
(dp5291
g70
I1
ssg71
g5285
sg64
(lp5292
(lp5293
(g4970
(S't\x08\x00\x00\x00Download'
tRp5294
I00
S'http://www.web2py.com/examples/default/download'
p5295
tp5296
a(g4970
(S't\x07\x00\x00\x00Support'
tRp5297
I00
S'http://www.web2py.com/examples/default/support'
p5298
tp5299
a(g4970
(S't\x04\x00\x00\x00Demo'
tRp5300
I00
S'http://web2py.com/demo_admin'
p5301
tp5302
a(g4970
(S's\x0e\x00\x00\x00Quick Examples'
tRp5303
I00
S'http://web2py.com/examples/default/examples'
p5304
tp5305
a(g4970
(S't\x03\x00\x00\x00FAQ'
tRp5306
I00
S'http://web2py.com/AlterEgo'
p5307
tp5308
a(g4970
(S't\x06\x00\x00\x00Videos'
tRp5309
I00
S'http://www.web2py.com/examples/default/videos/'
p5310
tp5311
a(g4970
(S's\x11\x00\x00\x00Free Applications'
tRp5312
I00
S'http://web2py.com/appliances'
p5313
tp5314
a(g4970
(S't\x07\x00\x00\x00Plugins'
tRp5315
I00
S'http://web2py.com/plugins'
p5316
tp5317
a(g4970
(S't\x07\x00\x00\x00Layouts'
tRp5318
I00
S'http://web2py.com/layouts'
p5319
tp5320
a(g4970
(S't\x07\x00\x00\x00Recipes'
tRp5321
I00
S'http://web2pyslices.com/'
p5322
tp5323
a(g4970
(S't\x08\x00\x00\x00Semantic'
tRp5324
I00
S'http://web2py.com/semantic'
p5325
tp5326
aasbasbasbasbasbasbasbag57
(g73
g59
NtRp5327
(dp5328
g62
(dp5329
sg71
g5084
sg64
(lp5330
g57
(g78
g59
NtRp5331
(dp5332
g62
(dp5333
sg71
g5327
sg64
(lp5334
g57
(g58
g59
NtRp5335
(dp5336
g62
(dp5337
g70
I2
ssg71
g5331
sg64
(lp5338
g57
(g66
g59
NtRp5339
(dp5340
g62
(dp5341
g70
I1
ssg71
Nsg64
(lp5342
g57
(g73
g59
NtRp5343
(dp5344
g62
(dp5345
sg71
g5339
sg64
(lp5346
g57
(g78
g59
NtRp5347
(dp5348
g62
(dp5349
sg71
g5343
sg64
(lp5350
g57
(g58
g59
NtRp5351
(dp5352
g62
(dp5353
g70
I1
ssg71
g5347
sg64
(lp5354
g4970
(S't\r\x00\x00\x00Documentation'
tRp5355
asbasbasbag57
(g73
g59
NtRp5356
(dp5357
g62
(dp5358
sg71
g5339
sg64
(lp5359
g57
(g78
g59
NtRp5360
(dp5361
g62
(dp5362
sg71
g5356
sg64
(lp5363
g57
(g58
g59
NtRp5364
(dp5365
g62
(dp5366
g70
I1
ssg71
g5360
sg64
(lp5367
I00
asbasbasbag57
(g73
g59
NtRp5368
(dp5369
g62
(dp5370
sg71
g5339
sg64
(lp5371
g57
(g78
g59
NtRp5372
(dp5373
g62
(dp5374
sg71
g5368
sg64
(lp5375
g57
(g58
g59
NtRp5376
(dp5377
g62
(dp5378
g70
I1
ssg71
g5372
sg64
(lp5379
S'http://www.web2py.com/book'
p5380
asbasbasbag57
(g73
g59
NtRp5381
(dp5382
g62
(dp5383
sg71
g5339
sg64
(lp5384
g57
(g78
g59
NtRp5385
(dp5386
g62
(dp5387
sg71
g5381
sg64
(lp5388
g57
(g58
g59
NtRp5389
(dp5390
g62
(dp5391
g70
I1
ssg71
g5385
sg64
(lp5392
(lp5393
(g4970
(S't\x07\x00\x00\x00Preface'
tRp5394
I00
S'http://www.web2py.com/book/default/chapter/00'
p5395
tp5396
a(g4970
(S't\x0c\x00\x00\x00Introduction'
tRp5397
I00
S'http://www.web2py.com/book/default/chapter/01'
p5398
tp5399
a(g4970
(S't\x06\x00\x00\x00Python'
tRp5400
I00
S'http://www.web2py.com/book/default/chapter/02'
p5401
tp5402
a(g4970
(S't\x08\x00\x00\x00Overview'
tRp5403
I00
S'http://www.web2py.com/book/default/chapter/03'
p5404
tp5405
a(g4970
(S's\x08\x00\x00\x00The Core'
tRp5406
I00
S'http://www.web2py.com/book/default/chapter/04'
p5407
tp5408
a(g4970
(S's\t\x00\x00\x00The Views'
tRp5409
I00
S'http://www.web2py.com/book/default/chapter/05'
p5410
tp5411
a(g4970
(S't\x08\x00\x00\x00Database'
tRp5412
I00
S'http://www.web2py.com/book/default/chapter/06'
p5413
tp5414
a(g4970
(S's\x14\x00\x00\x00Forms and Validators'
tRp5415
I00
S'http://www.web2py.com/book/default/chapter/07'
p5416
tp5417
a(g4970
(S's\r\x00\x00\x00Email and SMS'
tRp5418
I00
S'http://www.web2py.com/book/default/chapter/08'
p5419
tp5420
a(g4970
(S's\x0e\x00\x00\x00Access Control'
tRp5421
I00
S'http://www.web2py.com/book/default/chapter/09'
p5422
tp5423
a(g4970
(S't\x08\x00\x00\x00Services'
tRp5424
I00
S'http://www.web2py.com/book/default/chapter/10'
p5425
tp5426
a(g4970
(S's\x0c\x00\x00\x00Ajax Recipes'
tRp5427
I00
S'http://www.web2py.com/book/default/chapter/11'
p5428
tp5429
a(g4970
(S's\x16\x00\x00\x00Components and Plugins'
tRp5430
I00
S'http://www.web2py.com/book/default/chapter/12'
p5431
tp5432
a(g4970
(S's\x12\x00\x00\x00Deployment Recipes'
tRp5433
I00
S'http://www.web2py.com/book/default/chapter/13'
p5434
tp5435
a(g4970
(S's\r\x00\x00\x00Other Recipes'
tRp5436
I00
S'http://www.web2py.com/book/default/chapter/14'
p5437
tp5438
a(g4970
(S's\r\x00\x00\x00Buy this book'
tRp5439
I00
S'http://stores.lulu.com/web2py'
p5440
tp5441
aasbasbasbasbasbasbasbag57
(g73
g59
NtRp5442
(dp5443
g62
(dp5444
sg71
g5084
sg64
(lp5445
g57
(g78
g59
NtRp5446
(dp5447
g62
(dp5448
sg71
g5442
sg64
(lp5449
g57
(g58
g59
NtRp5450
(dp5451
g62
(dp5452
g70
I2
ssg71
g5446
sg64
(lp5453
g57
(g66
g59
NtRp5454
(dp5455
g62
(dp5456
g70
I1
ssg71
Nsg64
(lp5457
g57
(g73
g59
NtRp5458
(dp5459
g62
(dp5460
sg71
g5454
sg64
(lp5461
g57
(g78
g59
NtRp5462
(dp5463
g62
(dp5464
sg71
g5458
sg64
(lp5465
g57
(g58
g59
NtRp5466
(dp5467
g62
(dp5468
g70
I1
ssg71
g5462
sg64
(lp5469
g4970
(S't\t\x00\x00\x00Community'
tRp5470
asbasbasbag57
(g73
g59
NtRp5471
(dp5472
g62
(dp5473
sg71
g5454
sg64
(lp5474
g57
(g78
g59
NtRp5475
(dp5476
g62
(dp5477
sg71
g5471
sg64
(lp5478
g57
(g58
g59
NtRp5479
(dp5480
g62
(dp5481
g70
I1
ssg71
g5475
sg64
(lp5482
I00
asbasbasbag57
(g73
g59
NtRp5483
(dp5484
g62
(dp5485
sg71
g5454
sg64
(lp5486
g57
(g78
g59
NtRp5487
(dp5488
g62
(dp5489
sg71
g5483
sg64
(lp5490
g57
(g58
g59
NtRp5491
(dp5492
g62
(dp5493
g70
I1
ssg71
g5487
sg64
(lp5494
Nasbasbasbag57
(g73
g59
NtRp5495
(dp5496
g62
(dp5497
sg71
g5454
sg64
(lp5498
g57
(g78
g59
NtRp5499
(dp5500
g62
(dp5501
sg71
g5495
sg64
(lp5502
g57
(g58
g59
NtRp5503
(dp5504
g62
(dp5505
g70
I1
ssg71
g5499
sg64
(lp5506
(lp5507
(g4970
(S't\x06\x00\x00\x00Groups'
tRp5508
I00
S'http://www.web2py.com/examples/default/usergroups'
p5509
tp5510
a(g4970
(S't\x07\x00\x00\x00Twitter'
tRp5511
I00
S'http://twitter.com/web2py'
p5512
tp5513
a(g4970
(S's\t\x00\x00\x00Live Chat'
tRp5514
I00
S'http://webchat.freenode.net/?channels=web2py'
p5515
tp5516
aasbasbasbasbasbasbasbag57
(g73
g59
NtRp5517
(dp5518
g62
(dp5519
sg71
g5084
sg64
(lp5520
g57
(g78
g59
NtRp5521
(dp5522
g62
(dp5523
sg71
g5517
sg64
(lp5524
g57
(g58
g59
NtRp5525
(dp5526
g62
(dp5527
g70
I2
ssg71
g5521
sg64
(lp5528
g57
(g66
g59
NtRp5529
(dp5530
g62
(dp5531
g70
I1
ssg71
Nsg64
(lp5532
g57
(g73
g59
NtRp5533
(dp5534
g62
(dp5535
sg71
g5529
sg64
(lp5536
g57
(g78
g59
NtRp5537
(dp5538
g62
(dp5539
sg71
g5533
sg64
(lp5540
g57
(g58
g59
NtRp5541
(dp5542
g62
(dp5543
g70
I1
ssg71
g5537
sg64
(lp5544
g4970
(S't\x07\x00\x00\x00Plugins'
tRp5545
asbasbasbag57
(g73
g59
NtRp5546
(dp5547
g62
(dp5548
sg71
g5529
sg64
(lp5549
g57
(g78
g59
NtRp5550
(dp5551
g62
(dp5552
sg71
g5546
sg64
(lp5553
g57
(g58
g59
NtRp5554
(dp5555
g62
(dp5556
g70
I1
ssg71
g5550
sg64
(lp5557
I00
asbasbasbag57
(g73
g59
NtRp5558
(dp5559
g62
(dp5560
sg71
g5529
sg64
(lp5561
g57
(g78
g59
NtRp5562
(dp5563
g62
(dp5564
sg71
g5558
sg64
(lp5565
g57
(g58
g59
NtRp5566
(dp5567
g62
(dp5568
g70
I1
ssg71
g5562
sg64
(lp5569
Nasbasbasbag57
(g73
g59
NtRp5570
(dp5571
g62
(dp5572
sg71
g5529
sg64
(lp5573
g57
(g78
g59
NtRp5574
(dp5575
g62
(dp5576
sg71
g5570
sg64
(lp5577
g57
(g58
g59
NtRp5578
(dp5579
g62
(dp5580
g70
I1
ssg71
g5574
sg64
(lp5581
(lp5582
(S'plugin_wiki'
p5583
I00
S'http://web2py.com/examples/default/download'
p5584
tp5585
a(g4970
(S's\r\x00\x00\x00Other Plugins'
tRp5586
I00
g5316
tp5587
a(g4970
(S's\x0e\x00\x00\x00Layout Plugins'
tRp5588
I00
g5319
tp5589
aasbasbasbasbasbasbasbasbasbasbasbasbasbasbasbasbasbasbasbag57
(g73
g59
NtRp5590
(dp5591
g62
(dp5592
sg71
g4466
sg64
(lp5593
g57
(g78
g59
NtRp5594
(dp5595
g62
(dp5596
g82
g83
ssg71
g5590
sg64
(lp5597
S'meta'
p5598
asbag57
(g78
g59
NtRp5599
(dp5600
g62
(dp5601
g89
g90
ssg71
g5590
sg64
(lp5602
S':'
asbag57
(g78
g59
NtRp5603
(dp5604
g62
(dp5605
sg71
g5590
sg64
(lp5606
g57
(g58
g59
NtRp5607
(dp5608
g62
(dp5609
g70
I5
ssg71
g5603
sg64
(lp5610
g57
(g66
g59
NtRp5611
(dp5612
g62
(dp5613
g70
I4
ssg71
Nsg64
(lp5614
g57
(g73
g59
NtRp5615
(dp5616
g62
(dp5617
sg71
g5611
sg64
(lp5618
g57
(g78
g59
NtRp5619
(dp5620
g62
(dp5621
g82
g83
ssg71
g5615
sg64
(lp5622
S'author'
p5623
asbag57
(g78
g59
NtRp5624
(dp5625
g62
(dp5626
g89
g90
ssg71
g5615
sg64
(lp5627
S':'
asbag57
(g78
g59
NtRp5628
(dp5629
g62
(dp5630
sg71
g5615
sg64
(lp5631
g57
(g58
g59
NtRp5632
(dp5633
g62
(dp5634
g70
I4
ssg71
g5628
sg64
(lp5635
S'Your Name <you@example.com>'
p5636
asbasbasbag57
(g73
g59
NtRp5637
(dp5638
g62
(dp5639
sg71
g5611
sg64
(lp5640
g57
(g78
g59
NtRp5641
(dp5642
g62
(dp5643
g82
g83
ssg71
g5637
sg64
(lp5644
S'copyright'
p5645
asbag57
(g78
g59
NtRp5646
(dp5647
g62
(dp5648
g89
g90
ssg71
g5637
sg64
(lp5649
S':'
asbag57
(g78
g59
NtRp5650
(dp5651
g62
(dp5652
sg71
g5637
sg64
(lp5653
g57
(g58
g59
NtRp5654
(dp5655
g62
(dp5656
g70
I4
ssg71
g5650
sg64
(lp5657
S'Copyright 2011'
p5658
asbasbasbag57
(g73
g59
NtRp5659
(dp5660
g62
(dp5661
sg71
g5611
sg64
(lp5662
g57
(g78
g59
NtRp5663
(dp5664
g62
(dp5665
g82
g83
ssg71
g5659
sg64
(lp5666
S'description'
p5667
asbag57
(g78
g59
NtRp5668
(dp5669
g62
(dp5670
g89
g90
ssg71
g5659
sg64
(lp5671
S':'
asbag57
(g78
g59
NtRp5672
(dp5673
g62
(dp5674
sg71
g5659
sg64
(lp5675
g57
(g58
g59
NtRp5676
(dp5677
g62
(dp5678
g70
I4
ssg71
g5672
sg64
(lp5679
S'a cool new app'
p5680
asbasbasbag57
(g73
g59
NtRp5681
(dp5682
g62
(dp5683
sg71
g5611
sg64
(lp5684
g57
(g78
g59
NtRp5685
(dp5686
g62
(dp5687
g82
g83
ssg71
g5681
sg64
(lp5688
S'generator'
p5689
asbag57
(g78
g59
NtRp5690
(dp5691
g62
(dp5692
g89
g90
ssg71
g5681
sg64
(lp5693
S':'
asbag57
(g78
g59
NtRp5694
(dp5695
g62
(dp5696
sg71
g5681
sg64
(lp5697
g57
(g58
g59
NtRp5698
(dp5699
g62
(dp5700
g70
I4
ssg71
g5694
sg64
(lp5701
S'Web2py Web Framework'
p5702
asbasbasbag57
(g73
g59
NtRp5703
(dp5704
g62
(dp5705
sg71
g5611
sg64
(lp5706
g57
(g78
g59
NtRp5707
(dp5708
g62
(dp5709
g82
g83
ssg71
g5703
sg64
(lp5710
S'keywords'
p5711
asbag57
(g78
g59
NtRp5712
(dp5713
g62
(dp5714
g89
g90
ssg71
g5703
sg64
(lp5715
S':'
asbag57
(g78
g59
NtRp5716
(dp5717
g62
(dp5718
sg71
g5703
sg64
(lp5719
g57
(g58
g59
NtRp5720
(dp5721
g62
(dp5722
g70
I4
ssg71
g5716
sg64
(lp5723
S'web2py, python, framework'
p5724
asbasbasbasbasbasbasbag57
(g73
g59
NtRp5725
(dp5726
g62
(dp5727
sg71
g4466
sg64
(lp5728
g57
(g78
g59
NtRp5729
(dp5730
g62
(dp5731
g82
g83
ssg71
g5725
sg64
(lp5732
S'postprocessing'
p5733
asbag57
(g78
g59
NtRp5734
(dp5735
g62
(dp5736
g89
g90
ssg71
g5725
sg64
(lp5737
S':'
asbag57
(g78
g59
NtRp5738
(dp5739
g62
(dp5740
sg71
g5725
sg64
(lp5741
g57
(g58
g59
NtRp5742
(dp5743
g62
(dp5744
g70
I5
ssg71
g5738
sg64
(lp5745
g57
(g66
g59
NtRp5746
(dp5747
g62
(dp5748
g70
I4
ssg71
Nsg64
(lp5749
sbasbasbasbag57
(g73
g59
NtRp5750
(dp5751
g62
(dp5752
sg71
g4466
sg64
(lp5753
g57
(g78
g59
NtRp5754
(dp5755
g62
(dp5756
g82
g83
ssg71
g5750
sg64
(lp5757
S'session_file'
p5758
asbag57
(g78
g59
NtRp5759
(dp5760
g62
(dp5761
g89
g90
ssg71
g5750
sg64
(lp5762
S':'
asbag57
(g78
g59
NtRp5763
(dp5764
g62
(dp5765
sg71
g5750
sg64
(lp5766
g57
(g58
g59
NtRp5767
(dp5768
g62
(dp5769
g70
I5
ssg71
g5763
sg64
(lp5770
S"<open file '/home/ian/web2py/applications/blog/sessions/127.0.0.1-448ebfff-1985-4742-b850-118a78702f09', mode 'rb+' at 0x1ac5ed0>"
p5771
asbasbasbag57
(g73
g59
NtRp5772
(dp5773
g62
(dp5774
sg71
g4466
sg64
(lp5775
g57
(g78
g59
NtRp5776
(dp5777
g62
(dp5778
g82
g83
ssg71
g5772
sg64
(lp5779
S'session_filename'
p5780
asbag57
(g78
g59
NtRp5781
(dp5782
g62
(dp5783
g89
g90
ssg71
g5772
sg64
(lp5784
S':'
asbag57
(g78
g59
NtRp5785
(dp5786
g62
(dp5787
sg71
g5772
sg64
(lp5788
g57
(g58
g59
NtRp5789
(dp5790
g62
(dp5791
g70
I5
ssg71
g5785
sg64
(lp5792
S'/home/ian/web2py/applications/blog/sessions/127.0.0.1-448ebfff-1985-4742-b850-118a78702f09'
p5793
asbasbasbag57
(g73
g59
NtRp5794
(dp5795
g62
(dp5796
sg71
g4466
sg64
(lp5797
g57
(g78
g59
NtRp5798
(dp5799
g62
(dp5800
g82
g83
ssg71
g5794
sg64
(lp5801
S'session_id'
p5802
asbag57
(g78
g59
NtRp5803
(dp5804
g62
(dp5805
g89
g90
ssg71
g5794
sg64
(lp5806
S':'
asbag57
(g78
g59
NtRp5807
(dp5808
g62
(dp5809
sg71
g5794
sg64
(lp5810
g57
(g58
g59
NtRp5811
(dp5812
g62
(dp5813
g70
I5
ssg71
g5807
sg64
(lp5814
S'127.0.0.1-448ebfff-1985-4742-b850-118a78702f09'
p5815
asbasbasbag57
(g73
g59
NtRp5816
(dp5817
g62
(dp5818
sg71
g4466
sg64
(lp5819
g57
(g78
g59
NtRp5820
(dp5821
g62
(dp5822
g82
g83
ssg71
g5816
sg64
(lp5823
S'session_id_name'
p5824
asbag57
(g78
g59
NtRp5825
(dp5826
g62
(dp5827
g89
g90
ssg71
g5816
sg64
(lp5828
S':'
asbag57
(g78
g59
NtRp5829
(dp5830
g62
(dp5831
sg71
g5816
sg64
(lp5832
g57
(g58
g59
NtRp5833
(dp5834
g62
(dp5835
g70
I5
ssg71
g5829
sg64
(lp5836
g4523
asbasbasbag57
(g73
g59
NtRp5837
(dp5838
g62
(dp5839
sg71
g4466
sg64
(lp5840
g57
(g78
g59
NtRp5841
(dp5842
g62
(dp5843
g82
g83
ssg71
g5837
sg64
(lp5844
S'session_locked'
p5845
asbag57
(g78
g59
NtRp5846
(dp5847
g62
(dp5848
g89
g90
ssg71
g5837
sg64
(lp5849
S':'
asbag57
(g78
g59
NtRp5850
(dp5851
g62
(dp5852
sg71
g5837
sg64
(lp5853
g57
(g58
g59
NtRp5854
(dp5855
g62
(dp5856
g70
I5
ssg71
g5850
sg64
(lp5857
g2333
asbasbasbag57
(g73
g59
NtRp5858
(dp5859
g62
(dp5860
sg71
g4466
sg64
(lp5861
g57
(g78
g59
NtRp5862
(dp5863
g62
(dp5864
g82
g83
ssg71
g5858
sg64
(lp5865
S'session_new'
p5866
asbag57
(g78
g59
NtRp5867
(dp5868
g62
(dp5869
g89
g90
ssg71
g5858
sg64
(lp5870
S':'
asbag57
(g78
g59
NtRp5871
(dp5872
g62
(dp5873
sg71
g5858
sg64
(lp5874
g57
(g58
g59
NtRp5875
(dp5876
g62
(dp5877
g70
I5
ssg71
g5871
sg64
(lp5878
g100
asbasbasbag57
(g73
g59
NtRp5879
(dp5880
g62
(dp5881
sg71
g4466
sg64
(lp5882
g57
(g78
g59
NtRp5883
(dp5884
g62
(dp5885
g82
g83
ssg71
g5879
sg64
(lp5886
S'status'
p5887
asbag57
(g78
g59
NtRp5888
(dp5889
g62
(dp5890
g89
g90
ssg71
g5879
sg64
(lp5891
S':'
asbag57
(g78
g59
NtRp5892
(dp5893
g62
(dp5894
sg71
g5879
sg64
(lp5895
g57
(g58
g59
NtRp5896
(dp5897
g62
(dp5898
g70
I5
ssg71
g5892
sg64
(lp5899
S'200'
p5900
asbasbasbag57
(g73
g59
NtRp5901
(dp5902
g62
(dp5903
sg71
g4466
sg64
(lp5904
g57
(g78
g59
NtRp5905
(dp5906
g62
(dp5907
g82
g83
ssg71
g5901
sg64
(lp5908
S'subtitle'
p5909
asbag57
(g78
g59
NtRp5910
(dp5911
g62
(dp5912
g89
g90
ssg71
g5901
sg64
(lp5913
S':'
asbag57
(g78
g59
NtRp5914
(dp5915
g62
(dp5916
sg71
g5901
sg64
(lp5917
g57
(g58
g59
NtRp5918
(dp5919
g62
(dp5920
g70
I5
ssg71
g5914
sg64
(lp5921
g4970
(S's\r\x00\x00\x00customize me!'
tRp5922
asbasbasbag57
(g73
g59
NtRp5923
(dp5924
g62
(dp5925
sg71
g4466
sg64
(lp5926
g57
(g78
g59
NtRp5927
(dp5928
g62
(dp5929
g82
g83
ssg71
g5923
sg64
(lp5930
S'title'
p5931
asbag57
(g78
g59
NtRp5932
(dp5933
g62
(dp5934
g89
g90
ssg71
g5923
sg64
(lp5935
S':'
asbag57
(g78
g59
NtRp5936
(dp5937
g62
(dp5938
sg71
g5923
sg64
(lp5939
g57
(g58
g59
NtRp5940
(dp5941
g62
(dp5942
g70
I5
ssg71
g5936
sg64
(lp5943
S'Blog'
p5944
asbasbasbag57
(g73
g59
NtRp5945
(dp5946
g62
(dp5947
sg71
g4466
sg64
(lp5948
g57
(g78
g59
NtRp5949
(dp5950
g62
(dp5951
g82
g83
ssg71
g5945
sg64
(lp5952
g3128
asbag57
(g78
g59
NtRp5953
(dp5954
g62
(dp5955
g89
g90
ssg71
g5945
sg64
(lp5956
S':'
asbag57
(g78
g59
NtRp5957
(dp5958
g62
(dp5959
sg71
g5945
sg64
(lp5960
g57
(g58
g59
NtRp5961
(dp5962
g62
(dp5963
g70
I5
ssg71
g5957
sg64
(lp5964
g3141
asbasbasbag57
(g73
g59
NtRp5965
(dp5966
g62
(dp5967
sg71
g4466
sg64
(lp5968
g57
(g78
g59
NtRp5969
(dp5970
g62
(dp5971
g82
g83
ssg71
g5965
sg64
(lp5972
S'view'
p5973
asbag57
(g78
g59
NtRp5974
(dp5975
g62
(dp5976
g89
g90
ssg71
g5965
sg64
(lp5977
S':'
asbag57
(g78
g59
NtRp5978
(dp5979
g62
(dp5980
sg71
g5965
sg64
(lp5981
g57
(g58
g59
NtRp5982
(dp5983
g62
(dp5984
g70
I5
ssg71
g5978
sg64
(lp5985
S'default/user.html'
p5986
asbasbasbasbasbsS'locals'
p5987
(dp5988
g3084
S"'/blog/appadmin/select/db?delete_check=on&query=db.auth_user.id+%3D%3D+1&update_fields='"
p5989
sS'form'
p5990
S'<gluon.sqlhtml.SQLFORM object>'
p5991
sssS'traceback'
p5992
S'Traceback (most recent call last):\n  File "/home/ian/web2py/gluon/restricted.py", line 204, in restricted\n    exec ccode in environment\n  File "/home/ian/web2py/applications/blog/controllers/default.py", line 73, in <module>\n  File "/home/ian/web2py/gluon/globals.py", line 172, in <lambda>\n    self._caller = lambda f: f()\n  File "/home/ian/web2py/applications/blog/controllers/default.py", line 34, in user\n    return dict(form=auth())\n  File "/home/ian/web2py/gluon/tools.py", line 1141, in __call__\n    return getattr(self,args[0])()\n  File "/home/ian/web2py/gluon/tools.py", line 1938, in register\n    next = replace_id(next, form)\n  File "/home/ian/web2py/gluon/tools.py", line 79, in replace_id\n    return url % form.vars\nValueError: unsupported format character \'D\' (0x44) at index 65\n'
p5993
s.